ARM GAS  /var/folders/wv/bpgj319905s5rl92drfwf9k40000gn/T//ccs5NhWZ.s 			page 1


   1              		.cpu cortex-m0
   2              		.fpu softvfp
   3              		.eabi_attribute 20, 1	@ Tag_ABI_FP_denormal
   4              		.eabi_attribute 21, 1	@ Tag_ABI_FP_exceptions
   5              		.eabi_attribute 23, 3	@ Tag_ABI_FP_number_model
   6              		.eabi_attribute 24, 1	@ Tag_ABI_align8_needed
   7              		.eabi_attribute 25, 1	@ Tag_ABI_align8_preserved
   8              		.eabi_attribute 26, 1	@ Tag_ABI_enum_size
   9              		.eabi_attribute 30, 4	@ Tag_ABI_optimization_goals
  10              		.eabi_attribute 34, 0	@ Tag_CPU_unaligned_access
  11              		.eabi_attribute 18, 4	@ Tag_ABI_PCS_wchar_t
  12              		.file	"lpc1114.c"
  13              	@ GNU C++ (GNU Tools for ARM Embedded Processors) version 4.7.4 20130613 (release) [ARM/embedded-4_
  14              	@	compiled by GNU C version 4.2.1 (Based on Apple Inc. build 5658) (LLVM build 2336.9.00), GMP vers
  15              	@ GGC heuristics: --param ggc-min-expand=100 --param ggc-min-heapsize=131072
  16              	@ options passed:  -I . -imultilib armv6-m
  17              	@ -iprefix /Users/stevenparker/toolchains/gcc-arm-none-eabi-4_7-2013q2/bin/../lib/gcc/arm-none-eabi
  18              	@ -isysroot /Users/stevenparker/toolchains/gcc-arm-none-eabi-4_7-2013q2/bin/../arm-none-eabi
  19              	@ -MD out/lpc1114.d -MF out/lpc1114.d -MP -MQ out/lpc1114.o
  20              	@ -D__USES_INITFINI__ lpc1114.c -mcpu=cortex-m0 -mthumb
  21              	@ -auxbase-strip out/lpc1114.o -g -ggdb3 -Os -std=gnu++98
  22              	@ -ffunction-sections -fdata-sections -fno-rtti -fno-exceptions
  23              	@ -fverbose-asm
  24              	@ options enabled:  -fauto-inc-dec -fbranch-count-reg -fcaller-saves
  25              	@ -fcombine-stack-adjustments -fcommon -fcompare-elim -fcprop-registers
  26              	@ -fcrossjumping -fcse-follow-jumps -fdata-sections -fdebug-types-section
  27              	@ -fdefer-pop -fdelete-null-pointer-checks -fdevirtualize -fdwarf2-cfi-asm
  28              	@ -fearly-inlining -feliminate-unused-debug-types -fexpensive-optimizations
  29              	@ -fforward-propagate -ffunction-cse -ffunction-sections -fgcse -fgcse-lm
  30              	@ -fgnu-runtime -fguess-branch-probability -fident -fif-conversion
  31              	@ -fif-conversion2 -findirect-inlining -finline -finline-atomics
  32              	@ -finline-functions -finline-functions-called-once
  33              	@ -finline-small-functions -fipa-cp -fipa-profile -fipa-pure-const
  34              	@ -fipa-reference -fipa-sra -fira-hoist-pressure -fira-share-save-slots
  35              	@ -fira-share-spill-slots -fivopts -fkeep-static-consts
  36              	@ -fleading-underscore -fmath-errno -fmerge-constants -fmerge-debug-strings
  37              	@ -fomit-frame-pointer -foptimize-register-move -foptimize-sibling-calls
  38              	@ -fpartial-inlining -fpeephole -fpeephole2 -fprefetch-loop-arrays
  39              	@ -freg-struct-return -fregmove -frename-registers -freorder-blocks
  40              	@ -freorder-functions -frerun-cse-after-loop
  41              	@ -fsched-critical-path-heuristic -fsched-dep-count-heuristic
  42              	@ -fsched-group-heuristic -fsched-interblock -fsched-last-insn-heuristic
  43              	@ -fsched-rank-heuristic -fsched-spec -fsched-spec-insn-heuristic
  44              	@ -fsched-stalled-insns-dep -fschedule-insns2 -fsection-anchors
  45              	@ -fshow-column -fshrink-wrap -fsigned-zeros -fsplit-ivs-in-unroller
  46              	@ -fsplit-wide-types -fstrict-aliasing -fstrict-overflow
  47              	@ -fstrict-volatile-bitfields -fthread-jumps -ftoplevel-reorder
  48              	@ -ftrapping-math -ftree-bit-ccp -ftree-builtin-call-dce -ftree-ccp
  49              	@ -ftree-ch -ftree-copy-prop -ftree-copyrename -ftree-cselim -ftree-dce
  50              	@ -ftree-dominator-opts -ftree-dse -ftree-forwprop -ftree-fre
  51              	@ -ftree-loop-if-convert -ftree-loop-im -ftree-loop-ivcanon
  52              	@ -ftree-loop-optimize -ftree-parallelize-loops= -ftree-phiprop -ftree-pre
  53              	@ -ftree-pta -ftree-reassoc -ftree-scev-cprop -ftree-sink
  54              	@ -ftree-slp-vectorize -ftree-sra -ftree-switch-conversion
  55              	@ -ftree-tail-merge -ftree-ter -ftree-vect-loop-version -ftree-vrp
  56              	@ -funit-at-a-time -funroll-loops -fvar-tracking -fvar-tracking-assignments
  57              	@ -fverbose-asm -fweb -fzero-initialized-in-bss -mlittle-endian
ARM GAS  /var/folders/wv/bpgj319905s5rl92drfwf9k40000gn/T//ccs5NhWZ.s 			page 2


  58              	@ -msched-prolog -mthumb -mvectorize-with-neon-quad
  59              	
  60              		.text
  61              	.Ltext0:
  62              		.cfi_sections	.debug_frame
  63              		.section	.text.__startup,"ax",%progbits
  64              		.align	1
  65              		.global	__startup
  66              		.code	16
  67              		.thumb_func
  68              		.type	__startup, %function
  69              	__startup:
  70              	.LFB0:
  71              		.file 1 "lpc1114.c"
   1:lpc1114.c     **** //===========================================================================
   2:lpc1114.c     **** // LPC1114 startup
   3:lpc1114.c     **** // Wouter van Ooijen - wouter@voti.nl
   4:lpc1114.c     **** // license: zlib
   5:lpc1114.c     **** //===========================================================================
   6:lpc1114.c     **** 
   7:lpc1114.c     **** int main( void );
   8:lpc1114.c     **** extern "C" { void __startup( void ); }
   9:lpc1114.c     **** void TIMER0_OVF_vect( void );
  10:lpc1114.c     **** void UART_IRQHandler ( void );
  11:lpc1114.c     **** extern int __stack_end;			
  12:lpc1114.c     **** 
  13:lpc1114.c     **** // nr 7 (offset 0x1C) is the vectors checksum
  14:lpc1114.c     **** extern void (* const __vectors[ 40 ])(void) 
  15:lpc1114.c     ****    __attribute__ ((section(".vectors"))) = {
  16:lpc1114.c     ****       (void (*)(void)) & __stack_end,	
  17:lpc1114.c     ****       __startup,
  18:lpc1114.c     ****       0,          /* NMI Handler */
  19:lpc1114.c     ****       0,          /* Hard Fault Handler */
  20:lpc1114.c     ****       0,          /* Reserved */
  21:lpc1114.c     ****       0,          /* Reserved */
  22:lpc1114.c     ****       0,          /* Reserved */
  23:lpc1114.c     ****       0,          /* Reserved */
  24:lpc1114.c     ****       0,          /* Reserved */
  25:lpc1114.c     ****       0,          /* Reserved */
  26:lpc1114.c     ****       0,          /* Reserved */
  27:lpc1114.c     ****       0,          /* SVCall Handler */
  28:lpc1114.c     ****       0,          /* Reserved */
  29:lpc1114.c     ****       0,          /* Reserved */
  30:lpc1114.c     ****       0,          /* PendSV Handler */
  31:lpc1114.c     ****       0,          /* SysTick Handler */
  32:lpc1114.c     ****       0,          /* IRQ0 */
  33:lpc1114.c     ****       0,          /* IRQ1 */
  34:lpc1114.c     ****       0,          /* IRQ2 */
  35:lpc1114.c     ****       0,          /* IRQ3 */
  36:lpc1114.c     ****       0,          /* IRQ4 */
  37:lpc1114.c     ****       0,          /* IRQ5 */
  38:lpc1114.c     ****       0,          /* IRQ6 */
  39:lpc1114.c     ****       0,          /* IRQ7 */
  40:lpc1114.c     ****       0,          /* IRQ8 */
  41:lpc1114.c     ****       0,          /* IRQ9 */
  42:lpc1114.c     ****       0,          /* IRQ10 */
  43:lpc1114.c     ****       0,          /* IRQ11 */
ARM GAS  /var/folders/wv/bpgj319905s5rl92drfwf9k40000gn/T//ccs5NhWZ.s 			page 3


  44:lpc1114.c     ****       0,          /* IRQ12 */
  45:lpc1114.c     ****       0,          /* IRQ13 */
  46:lpc1114.c     ****       0,          /* IRQ14 - SPI1    */
  47:lpc1114.c     ****       0,          /* IRQ15 - I2C     */
  48:lpc1114.c     ****       TIMER0_OVF_vect,          /* IRQ16 - CT16B0  */
  49:lpc1114.c     ****       0,          /* IRQ17 - CT16B1  */
  50:lpc1114.c     ****       0,          /* IRQ18 - CT32B0  */
  51:lpc1114.c     ****       0,          /* IRQ19 - CT32B1  */
  52:lpc1114.c     ****       0,          /* IRQ20 - SPI0    */
  53:lpc1114.c     ****       UART_IRQHandler           /* IRQ21 - UART    */
  54:lpc1114.c     **** 
  55:lpc1114.c     **** };
  56:lpc1114.c     **** 
  57:lpc1114.c     **** void __startup(void){
  72              		.loc 1 57 0
  73              		.cfi_startproc
  74              	.LVL0:
  75 0000 10B5     		push	{r4, lr}	@
  76              	.LCFI0:
  77              		.cfi_def_cfa_offset 8
  78              		.cfi_offset 4, -8
  79              		.cfi_offset 14, -4
  80              	.LBB2:
  58:lpc1114.c     ****    extern int __data_init_start;
  59:lpc1114.c     ****    extern int __data_start;
  60:lpc1114.c     ****    extern int __data_end;
  61:lpc1114.c     ****    extern int __bss_start;
  62:lpc1114.c     ****    extern int __bss_end;
  63:lpc1114.c     ****    extern int __init_array_start;
  64:lpc1114.c     ****    extern int __init_array_end;
  65:lpc1114.c     ****    
  66:lpc1114.c     **** 	 int *s, *d, *e;
  67:lpc1114.c     **** 
  68:lpc1114.c     **** 	 // clear .bss section 
  69:lpc1114.c     **** 	 d = & __bss_start;
  81              		.loc 1 69 0
  82 0002 1149     		ldr	r1, .L13	@ d,
  83              	.LVL1:
  84              	.L2:
  70:lpc1114.c     **** 	 e = & __bss_end;
  71:lpc1114.c     **** 	 while( d != e ){
  85              		.loc 1 71 0 discriminator 1
  86 0004 114A     		ldr	r2, .L13+4	@ tmp177,
  87 0006 9142     		cmp	r1, r2	@ d, tmp177
  88 0008 02D0     		beq	.L10	@,
  89              	.L3:
  72:lpc1114.c     **** 	    *d++ = 0;
  90              		.loc 1 72 0
  91 000a 0022     		mov	r2, #0	@ tmp176,
  92 000c 04C1     		stmia	r1!, {r2}	@ MEM[base: d_3, offset: 0B], tmp176
  93              	.LVL2:
  94 000e F9E7     		b	.L2	@
  95              	.L10:
  57:lpc1114.c     **** void __startup(void){
  96              		.loc 1 57 0
  97 0010 0F49     		ldr	r1, .L13+8	@ tmp179,
  98              	.LVL3:
ARM GAS  /var/folders/wv/bpgj319905s5rl92drfwf9k40000gn/T//ccs5NhWZ.s 			page 4


  99 0012 104A     		ldr	r2, .L13+12	@ tmp180,
 100 0014 881A     		sub	r0, r1, r2	@ tmp178, tmp179, tmp180
 101 0016 8308     		lsr	r3, r0, #2	@ tmp181, tmp178,
 102 0018 0133     		add	r3, r3, #1	@ tmp182,
 103 001a 9900     		lsl	r1, r3, #2	@ D.4617, tmp182,
 104 001c 0023     		mov	r3, #0	@ ivtmp.19,
 105              	.L4:
 106 001e 0433     		add	r3, r3, #4	@ ivtmp.19,
  73:lpc1114.c     **** 	 }
  74:lpc1114.c     **** 	 
  75:lpc1114.c     **** 	 // copy .data section from flash to ram
  76:lpc1114.c     **** 	 s = & __data_init_start;
  77:lpc1114.c     **** 	 d = & __data_start;
  78:lpc1114.c     **** 	 e = & __data_end;
  79:lpc1114.c     **** 	 while( d != e ){ 
 107              		.loc 1 79 0 discriminator 1
 108 0020 8B42     		cmp	r3, r1	@ ivtmp.19, D.4617
 109 0022 07D0     		beq	.L11	@,
 110              	.L5:
  57:lpc1114.c     **** void __startup(void){
 111              		.loc 1 57 0
 112 0024 0C4C     		ldr	r4, .L13+16	@ tmp187,
 113 0026 D018     		add	r0, r2, r3	@ tmp183, tmp191, ivtmp.19
 114 0028 1C19     		add	r4, r3, r4	@ tmp186, ivtmp.19, tmp187
 115 002a 043C     		sub	r4, r4, #4	@ tmp188,
  80:lpc1114.c     **** 	    *d++ = *s++;
 116              		.loc 1 80 0
 117 002c 2468     		ldr	r4, [r4]	@, MEM[base: D.4619_34, offset: 0B]
  57:lpc1114.c     **** void __startup(void){
 118              		.loc 1 57 0
 119 002e 0438     		sub	r0, r0, #4	@ tmp185,
 120              		.loc 1 80 0
 121 0030 0460     		str	r4, [r0]	@, MEM[base: D.4621_38, offset: 0B]
 122 0032 F4E7     		b	.L4	@
 123              	.L11:
  79:lpc1114.c     **** 	 while( d != e ){ 
 124              		.loc 1 79 0
 125 0034 094C     		ldr	r4, .L13+20	@ s,
 126              	.L6:
 127              	.LVL4:
  81:lpc1114.c     **** 	 } 
  82:lpc1114.c     **** 	 
  83:lpc1114.c     **** 	 // call the constructorts of global objects
  84:lpc1114.c     **** 	 s = & __init_array_start;
  85:lpc1114.c     **** 	 e = & __init_array_end;
  86:lpc1114.c     **** 	 while( s != e ){
 128              		.loc 1 86 0 discriminator 1
 129 0036 0A4A     		ldr	r2, .L13+24	@ tmp190,
 130 0038 9442     		cmp	r4, r2	@ s, tmp190
 131 003a 02D0     		beq	.L12	@,
 132              	.L7:
  87:lpc1114.c     **** 	    (*((void(**)())s++))();
 133              		.loc 1 87 0
 134 003c 02CC     		ldmia	r4!, {r1}	@ MEM[base: s_2, offset: 0B], D.4572
 135              	.LVL5:
 136 003e 8847     		blx	r1	@ D.4572
 137              	.LVL6:
ARM GAS  /var/folders/wv/bpgj319905s5rl92drfwf9k40000gn/T//ccs5NhWZ.s 			page 5


 138 0040 F9E7     		b	.L6	@
 139              	.L12:
  88:lpc1114.c     **** 	 }
  89:lpc1114.c     ****   
  90:lpc1114.c     ****    // call main   
  91:lpc1114.c     ****    (void) main(); 
 140              		.loc 1 91 0
 141 0042 FFF7FEFF 		bl	main	@
 142              	.LVL7:
 143              	.L8:
 144 0046 FEE7     		b	.L8	@
 145              	.L14:
 146              		.align	2
 147              	.L13:
 148 0048 00000000 		.word	__bss_start
 149 004c 00000000 		.word	__bss_end
 150 0050 00000000 		.word	__data_end
 151 0054 00000000 		.word	__data_start
 152 0058 00000000 		.word	__data_init_start
 153 005c 00000000 		.word	__init_array_start
 154 0060 00000000 		.word	__init_array_end
 155              	.LBE2:
 156              		.cfi_endproc
 157              	.LFE0:
 158              		.size	__startup, .-__startup
 159              		.section	.text.__cxa_pure_virtual,"ax",%progbits
 160              		.align	1
 161              		.global	__cxa_pure_virtual
 162              		.code	16
 163              		.thumb_func
 164              		.type	__cxa_pure_virtual, %function
 165              	__cxa_pure_virtual:
 166              	.LFB1:
  92:lpc1114.c     ****    
  93:lpc1114.c     ****    // when main returns: loop till hell freezes down
  94:lpc1114.c     ****    while(1){}	
  95:lpc1114.c     ****    
  96:lpc1114.c     **** }
  97:lpc1114.c     **** 
  98:lpc1114.c     **** // called when a pure virtual method is called
  99:lpc1114.c     **** extern "C" void __cxa_pure_virtual( void ){
 167              		.loc 1 99 0
 168              		.cfi_startproc
 169              	.L16:
 170 0000 FEE7     		b	.L16	@
 171              		.cfi_endproc
 172              	.LFE1:
 173              		.size	__cxa_pure_virtual, .-__cxa_pure_virtual
 174              		.global	__vectors
 175              		.section	.vectors,"a",%progbits
 176              		.align	2
 177              		.type	__vectors, %object
 178              		.size	__vectors, 160
 179              	__vectors:
 180 0000 00000000 		.word	__stack_end
 181 0004 00000000 		.word	__startup
 182 0008 00000000 		.word	0
ARM GAS  /var/folders/wv/bpgj319905s5rl92drfwf9k40000gn/T//ccs5NhWZ.s 			page 6


 183 000c 00000000 		.word	0
 184 0010 00000000 		.word	0
 185 0014 00000000 		.word	0
 186 0018 00000000 		.word	0
 187 001c 00000000 		.word	0
 188 0020 00000000 		.word	0
 189 0024 00000000 		.word	0
 190 0028 00000000 		.word	0
 191 002c 00000000 		.word	0
 192 0030 00000000 		.word	0
 193 0034 00000000 		.word	0
 194 0038 00000000 		.word	0
 195 003c 00000000 		.word	0
 196 0040 00000000 		.word	0
 197 0044 00000000 		.word	0
 198 0048 00000000 		.word	0
 199 004c 00000000 		.word	0
 200 0050 00000000 		.word	0
 201 0054 00000000 		.word	0
 202 0058 00000000 		.word	0
 203 005c 00000000 		.word	0
 204 0060 00000000 		.word	0
 205 0064 00000000 		.word	0
 206 0068 00000000 		.word	0
 207 006c 00000000 		.word	0
 208 0070 00000000 		.word	0
 209 0074 00000000 		.word	0
 210 0078 00000000 		.word	0
 211 007c 00000000 		.word	0
 212 0080 00000000 		.word	_Z15TIMER0_OVF_vectv
 213 0084 00000000 		.word	0
 214 0088 00000000 		.word	0
 215 008c 00000000 		.word	0
 216 0090 00000000 		.word	0
 217 0094 00000000 		.word	_Z15UART_IRQHandlerv
 218 0098 00000000 		.space	8
 218      00000000 
 219              		.text
 220              	.Letext0:
 221              		.section	.debug_info,"",%progbits
 222              	.Ldebug_info0:
 223 0000 43010000 		.4byte	0x143
 224 0004 0200     		.2byte	0x2
 225 0006 00000000 		.4byte	.Ldebug_abbrev0
 226 000a 04       		.byte	0x4
 227 000b 01       		.uleb128 0x1
 228 000c AC200000 		.4byte	.LASF10
 229 0010 04       		.byte	0x4
 230 0011 0F1E0000 		.4byte	.LASF11
 231 0015 39150000 		.4byte	.LASF12
 232 0019 00000000 		.4byte	.Ldebug_ranges0+0
 233 001d 00000000 		.4byte	0
 234 0021 00000000 		.4byte	0
 235 0025 00000000 		.4byte	.Ldebug_line0
 236 0029 00000000 		.4byte	.Ldebug_macro0
 237 002d 02       		.uleb128 0x2
 238 002e 01       		.byte	0x1
ARM GAS  /var/folders/wv/bpgj319905s5rl92drfwf9k40000gn/T//ccs5NhWZ.s 			page 7


 239 002f AF0C0000 		.4byte	.LASF13
 240 0033 01       		.byte	0x1
 241 0034 39       		.byte	0x39
 242 0035 00000000 		.4byte	.LFB0
 243 0039 64000000 		.4byte	.LFE0
 244 003d 00000000 		.4byte	.LLST0
 245 0041 01       		.byte	0x1
 246 0042 D6000000 		.4byte	0xd6
 247 0046 03       		.uleb128 0x3
 248 0047 02000000 		.4byte	.LBB2
 249 004b 64000000 		.4byte	.LBE2
 250 004f 04       		.uleb128 0x4
 251 0050 0A070000 		.4byte	.LASF0
 252 0054 01       		.byte	0x1
 253 0055 3A       		.byte	0x3a
 254 0056 D6000000 		.4byte	0xd6
 255 005a 01       		.byte	0x1
 256 005b 01       		.byte	0x1
 257 005c 04       		.uleb128 0x4
 258 005d FD030000 		.4byte	.LASF1
 259 0061 01       		.byte	0x1
 260 0062 3B       		.byte	0x3b
 261 0063 D6000000 		.4byte	0xd6
 262 0067 01       		.byte	0x1
 263 0068 01       		.byte	0x1
 264 0069 04       		.uleb128 0x4
 265 006a B90C0000 		.4byte	.LASF2
 266 006e 01       		.byte	0x1
 267 006f 3C       		.byte	0x3c
 268 0070 D6000000 		.4byte	0xd6
 269 0074 01       		.byte	0x1
 270 0075 01       		.byte	0x1
 271 0076 04       		.uleb128 0x4
 272 0077 A41A0000 		.4byte	.LASF3
 273 007b 01       		.byte	0x1
 274 007c 3D       		.byte	0x3d
 275 007d D6000000 		.4byte	0xd6
 276 0081 01       		.byte	0x1
 277 0082 01       		.byte	0x1
 278 0083 04       		.uleb128 0x4
 279 0084 A50C0000 		.4byte	.LASF4
 280 0088 01       		.byte	0x1
 281 0089 3E       		.byte	0x3e
 282 008a D6000000 		.4byte	0xd6
 283 008e 01       		.byte	0x1
 284 008f 01       		.byte	0x1
 285 0090 04       		.uleb128 0x4
 286 0091 22030000 		.4byte	.LASF5
 287 0095 01       		.byte	0x1
 288 0096 3F       		.byte	0x3f
 289 0097 D6000000 		.4byte	0xd6
 290 009b 01       		.byte	0x1
 291 009c 01       		.byte	0x1
 292 009d 04       		.uleb128 0x4
 293 009e 2A050000 		.4byte	.LASF6
 294 00a2 01       		.byte	0x1
 295 00a3 40       		.byte	0x40
ARM GAS  /var/folders/wv/bpgj319905s5rl92drfwf9k40000gn/T//ccs5NhWZ.s 			page 8


 296 00a4 D6000000 		.4byte	0xd6
 297 00a8 01       		.byte	0x1
 298 00a9 01       		.byte	0x1
 299 00aa 05       		.uleb128 0x5
 300 00ab 7300     		.ascii	"s\000"
 301 00ad 01       		.byte	0x1
 302 00ae 42       		.byte	0x42
 303 00af DD000000 		.4byte	0xdd
 304 00b3 01       		.byte	0x1
 305 00b4 54       		.byte	0x54
 306 00b5 06       		.uleb128 0x6
 307 00b6 6400     		.ascii	"d\000"
 308 00b8 01       		.byte	0x1
 309 00b9 42       		.byte	0x42
 310 00ba DD000000 		.4byte	0xdd
 311 00be 20000000 		.4byte	.LLST1
 312 00c2 07       		.uleb128 0x7
 313 00c3 6500     		.ascii	"e\000"
 314 00c5 01       		.byte	0x1
 315 00c6 42       		.byte	0x42
 316 00c7 DD000000 		.4byte	0xdd
 317 00cb 08       		.uleb128 0x8
 318 00cc 46000000 		.4byte	.LVL7
 319 00d0 39010000 		.4byte	0x139
 320 00d4 00       		.byte	0
 321 00d5 00       		.byte	0
 322 00d6 09       		.uleb128 0x9
 323 00d7 04       		.byte	0x4
 324 00d8 05       		.byte	0x5
 325 00d9 696E7400 		.ascii	"int\000"
 326 00dd 0A       		.uleb128 0xa
 327 00de 04       		.byte	0x4
 328 00df D6000000 		.4byte	0xd6
 329 00e3 0B       		.uleb128 0xb
 330 00e4 01       		.byte	0x1
 331 00e5 3E190000 		.4byte	.LASF14
 332 00e9 01       		.byte	0x1
 333 00ea 63       		.byte	0x63
 334 00eb 00000000 		.4byte	.LFB1
 335 00ef 02000000 		.4byte	.LFE1
 336 00f3 02       		.byte	0x2
 337 00f4 7D       		.byte	0x7d
 338 00f5 00       		.sleb128 0
 339 00f6 01       		.byte	0x1
 340 00f7 04       		.uleb128 0x4
 341 00f8 7D080000 		.4byte	.LASF7
 342 00fc 01       		.byte	0x1
 343 00fd 0B       		.byte	0xb
 344 00fe D6000000 		.4byte	0xd6
 345 0102 01       		.byte	0x1
 346 0103 01       		.byte	0x1
 347 0104 0C       		.uleb128 0xc
 348 0105 1C010000 		.4byte	0x11c
 349 0109 14010000 		.4byte	0x114
 350 010d 0D       		.uleb128 0xd
 351 010e 14010000 		.4byte	0x114
 352 0112 27       		.byte	0x27
ARM GAS  /var/folders/wv/bpgj319905s5rl92drfwf9k40000gn/T//ccs5NhWZ.s 			page 9


 353 0113 00       		.byte	0
 354 0114 0E       		.uleb128 0xe
 355 0115 04       		.byte	0x4
 356 0116 07       		.byte	0x7
 357 0117 DE100000 		.4byte	.LASF8
 358 011b 0F       		.uleb128 0xf
 359 011c 0A       		.uleb128 0xa
 360 011d 04       		.byte	0x4
 361 011e 1B010000 		.4byte	0x11b
 362 0122 10       		.uleb128 0x10
 363 0123 570E0000 		.4byte	.LASF9
 364 0127 01       		.byte	0x1
 365 0128 0E       		.byte	0xe
 366 0129 34010000 		.4byte	0x134
 367 012d 01       		.byte	0x1
 368 012e 05       		.byte	0x5
 369 012f 03       		.byte	0x3
 370 0130 00000000 		.4byte	__vectors
 371 0134 11       		.uleb128 0x11
 372 0135 04010000 		.4byte	0x104
 373 0139 12       		.uleb128 0x12
 374 013a 01       		.byte	0x1
 375 013b 90210000 		.4byte	.LASF15
 376 013f 01       		.byte	0x1
 377 0140 07       		.byte	0x7
 378 0141 D6000000 		.4byte	0xd6
 379 0145 01       		.byte	0x1
 380 0146 00       		.byte	0
 381              		.section	.debug_abbrev,"",%progbits
 382              	.Ldebug_abbrev0:
 383 0000 01       		.uleb128 0x1
 384 0001 11       		.uleb128 0x11
 385 0002 01       		.byte	0x1
 386 0003 25       		.uleb128 0x25
 387 0004 0E       		.uleb128 0xe
 388 0005 13       		.uleb128 0x13
 389 0006 0B       		.uleb128 0xb
 390 0007 03       		.uleb128 0x3
 391 0008 0E       		.uleb128 0xe
 392 0009 1B       		.uleb128 0x1b
 393 000a 0E       		.uleb128 0xe
 394 000b 55       		.uleb128 0x55
 395 000c 06       		.uleb128 0x6
 396 000d 11       		.uleb128 0x11
 397 000e 01       		.uleb128 0x1
 398 000f 52       		.uleb128 0x52
 399 0010 01       		.uleb128 0x1
 400 0011 10       		.uleb128 0x10
 401 0012 06       		.uleb128 0x6
 402 0013 9942     		.uleb128 0x2119
 403 0015 06       		.uleb128 0x6
 404 0016 00       		.byte	0
 405 0017 00       		.byte	0
 406 0018 02       		.uleb128 0x2
 407 0019 2E       		.uleb128 0x2e
 408 001a 01       		.byte	0x1
 409 001b 3F       		.uleb128 0x3f
ARM GAS  /var/folders/wv/bpgj319905s5rl92drfwf9k40000gn/T//ccs5NhWZ.s 			page 10


 410 001c 0C       		.uleb128 0xc
 411 001d 03       		.uleb128 0x3
 412 001e 0E       		.uleb128 0xe
 413 001f 3A       		.uleb128 0x3a
 414 0020 0B       		.uleb128 0xb
 415 0021 3B       		.uleb128 0x3b
 416 0022 0B       		.uleb128 0xb
 417 0023 11       		.uleb128 0x11
 418 0024 01       		.uleb128 0x1
 419 0025 12       		.uleb128 0x12
 420 0026 01       		.uleb128 0x1
 421 0027 40       		.uleb128 0x40
 422 0028 06       		.uleb128 0x6
 423 0029 9642     		.uleb128 0x2116
 424 002b 0C       		.uleb128 0xc
 425 002c 01       		.uleb128 0x1
 426 002d 13       		.uleb128 0x13
 427 002e 00       		.byte	0
 428 002f 00       		.byte	0
 429 0030 03       		.uleb128 0x3
 430 0031 0B       		.uleb128 0xb
 431 0032 01       		.byte	0x1
 432 0033 11       		.uleb128 0x11
 433 0034 01       		.uleb128 0x1
 434 0035 12       		.uleb128 0x12
 435 0036 01       		.uleb128 0x1
 436 0037 00       		.byte	0
 437 0038 00       		.byte	0
 438 0039 04       		.uleb128 0x4
 439 003a 34       		.uleb128 0x34
 440 003b 00       		.byte	0
 441 003c 03       		.uleb128 0x3
 442 003d 0E       		.uleb128 0xe
 443 003e 3A       		.uleb128 0x3a
 444 003f 0B       		.uleb128 0xb
 445 0040 3B       		.uleb128 0x3b
 446 0041 0B       		.uleb128 0xb
 447 0042 49       		.uleb128 0x49
 448 0043 13       		.uleb128 0x13
 449 0044 3F       		.uleb128 0x3f
 450 0045 0C       		.uleb128 0xc
 451 0046 3C       		.uleb128 0x3c
 452 0047 0C       		.uleb128 0xc
 453 0048 00       		.byte	0
 454 0049 00       		.byte	0
 455 004a 05       		.uleb128 0x5
 456 004b 34       		.uleb128 0x34
 457 004c 00       		.byte	0
 458 004d 03       		.uleb128 0x3
 459 004e 08       		.uleb128 0x8
 460 004f 3A       		.uleb128 0x3a
 461 0050 0B       		.uleb128 0xb
 462 0051 3B       		.uleb128 0x3b
 463 0052 0B       		.uleb128 0xb
 464 0053 49       		.uleb128 0x49
 465 0054 13       		.uleb128 0x13
 466 0055 02       		.uleb128 0x2
ARM GAS  /var/folders/wv/bpgj319905s5rl92drfwf9k40000gn/T//ccs5NhWZ.s 			page 11


 467 0056 0A       		.uleb128 0xa
 468 0057 00       		.byte	0
 469 0058 00       		.byte	0
 470 0059 06       		.uleb128 0x6
 471 005a 34       		.uleb128 0x34
 472 005b 00       		.byte	0
 473 005c 03       		.uleb128 0x3
 474 005d 08       		.uleb128 0x8
 475 005e 3A       		.uleb128 0x3a
 476 005f 0B       		.uleb128 0xb
 477 0060 3B       		.uleb128 0x3b
 478 0061 0B       		.uleb128 0xb
 479 0062 49       		.uleb128 0x49
 480 0063 13       		.uleb128 0x13
 481 0064 02       		.uleb128 0x2
 482 0065 06       		.uleb128 0x6
 483 0066 00       		.byte	0
 484 0067 00       		.byte	0
 485 0068 07       		.uleb128 0x7
 486 0069 34       		.uleb128 0x34
 487 006a 00       		.byte	0
 488 006b 03       		.uleb128 0x3
 489 006c 08       		.uleb128 0x8
 490 006d 3A       		.uleb128 0x3a
 491 006e 0B       		.uleb128 0xb
 492 006f 3B       		.uleb128 0x3b
 493 0070 0B       		.uleb128 0xb
 494 0071 49       		.uleb128 0x49
 495 0072 13       		.uleb128 0x13
 496 0073 00       		.byte	0
 497 0074 00       		.byte	0
 498 0075 08       		.uleb128 0x8
 499 0076 898201   		.uleb128 0x4109
 500 0079 00       		.byte	0
 501 007a 11       		.uleb128 0x11
 502 007b 01       		.uleb128 0x1
 503 007c 31       		.uleb128 0x31
 504 007d 13       		.uleb128 0x13
 505 007e 00       		.byte	0
 506 007f 00       		.byte	0
 507 0080 09       		.uleb128 0x9
 508 0081 24       		.uleb128 0x24
 509 0082 00       		.byte	0
 510 0083 0B       		.uleb128 0xb
 511 0084 0B       		.uleb128 0xb
 512 0085 3E       		.uleb128 0x3e
 513 0086 0B       		.uleb128 0xb
 514 0087 03       		.uleb128 0x3
 515 0088 08       		.uleb128 0x8
 516 0089 00       		.byte	0
 517 008a 00       		.byte	0
 518 008b 0A       		.uleb128 0xa
 519 008c 0F       		.uleb128 0xf
 520 008d 00       		.byte	0
 521 008e 0B       		.uleb128 0xb
 522 008f 0B       		.uleb128 0xb
 523 0090 49       		.uleb128 0x49
ARM GAS  /var/folders/wv/bpgj319905s5rl92drfwf9k40000gn/T//ccs5NhWZ.s 			page 12


 524 0091 13       		.uleb128 0x13
 525 0092 00       		.byte	0
 526 0093 00       		.byte	0
 527 0094 0B       		.uleb128 0xb
 528 0095 2E       		.uleb128 0x2e
 529 0096 00       		.byte	0
 530 0097 3F       		.uleb128 0x3f
 531 0098 0C       		.uleb128 0xc
 532 0099 03       		.uleb128 0x3
 533 009a 0E       		.uleb128 0xe
 534 009b 3A       		.uleb128 0x3a
 535 009c 0B       		.uleb128 0xb
 536 009d 3B       		.uleb128 0x3b
 537 009e 0B       		.uleb128 0xb
 538 009f 11       		.uleb128 0x11
 539 00a0 01       		.uleb128 0x1
 540 00a1 12       		.uleb128 0x12
 541 00a2 01       		.uleb128 0x1
 542 00a3 40       		.uleb128 0x40
 543 00a4 0A       		.uleb128 0xa
 544 00a5 9742     		.uleb128 0x2117
 545 00a7 0C       		.uleb128 0xc
 546 00a8 00       		.byte	0
 547 00a9 00       		.byte	0
 548 00aa 0C       		.uleb128 0xc
 549 00ab 01       		.uleb128 0x1
 550 00ac 01       		.byte	0x1
 551 00ad 49       		.uleb128 0x49
 552 00ae 13       		.uleb128 0x13
 553 00af 01       		.uleb128 0x1
 554 00b0 13       		.uleb128 0x13
 555 00b1 00       		.byte	0
 556 00b2 00       		.byte	0
 557 00b3 0D       		.uleb128 0xd
 558 00b4 21       		.uleb128 0x21
 559 00b5 00       		.byte	0
 560 00b6 49       		.uleb128 0x49
 561 00b7 13       		.uleb128 0x13
 562 00b8 2F       		.uleb128 0x2f
 563 00b9 0B       		.uleb128 0xb
 564 00ba 00       		.byte	0
 565 00bb 00       		.byte	0
 566 00bc 0E       		.uleb128 0xe
 567 00bd 24       		.uleb128 0x24
 568 00be 00       		.byte	0
 569 00bf 0B       		.uleb128 0xb
 570 00c0 0B       		.uleb128 0xb
 571 00c1 3E       		.uleb128 0x3e
 572 00c2 0B       		.uleb128 0xb
 573 00c3 03       		.uleb128 0x3
 574 00c4 0E       		.uleb128 0xe
 575 00c5 00       		.byte	0
 576 00c6 00       		.byte	0
 577 00c7 0F       		.uleb128 0xf
 578 00c8 15       		.uleb128 0x15
 579 00c9 00       		.byte	0
 580 00ca 00       		.byte	0
ARM GAS  /var/folders/wv/bpgj319905s5rl92drfwf9k40000gn/T//ccs5NhWZ.s 			page 13


 581 00cb 00       		.byte	0
 582 00cc 10       		.uleb128 0x10
 583 00cd 34       		.uleb128 0x34
 584 00ce 00       		.byte	0
 585 00cf 03       		.uleb128 0x3
 586 00d0 0E       		.uleb128 0xe
 587 00d1 3A       		.uleb128 0x3a
 588 00d2 0B       		.uleb128 0xb
 589 00d3 3B       		.uleb128 0x3b
 590 00d4 0B       		.uleb128 0xb
 591 00d5 49       		.uleb128 0x49
 592 00d6 13       		.uleb128 0x13
 593 00d7 3F       		.uleb128 0x3f
 594 00d8 0C       		.uleb128 0xc
 595 00d9 02       		.uleb128 0x2
 596 00da 0A       		.uleb128 0xa
 597 00db 00       		.byte	0
 598 00dc 00       		.byte	0
 599 00dd 11       		.uleb128 0x11
 600 00de 26       		.uleb128 0x26
 601 00df 00       		.byte	0
 602 00e0 49       		.uleb128 0x49
 603 00e1 13       		.uleb128 0x13
 604 00e2 00       		.byte	0
 605 00e3 00       		.byte	0
 606 00e4 12       		.uleb128 0x12
 607 00e5 2E       		.uleb128 0x2e
 608 00e6 00       		.byte	0
 609 00e7 3F       		.uleb128 0x3f
 610 00e8 0C       		.uleb128 0xc
 611 00e9 03       		.uleb128 0x3
 612 00ea 0E       		.uleb128 0xe
 613 00eb 3A       		.uleb128 0x3a
 614 00ec 0B       		.uleb128 0xb
 615 00ed 3B       		.uleb128 0x3b
 616 00ee 0B       		.uleb128 0xb
 617 00ef 49       		.uleb128 0x49
 618 00f0 13       		.uleb128 0x13
 619 00f1 3C       		.uleb128 0x3c
 620 00f2 0C       		.uleb128 0xc
 621 00f3 00       		.byte	0
 622 00f4 00       		.byte	0
 623 00f5 00       		.byte	0
 624              		.section	.debug_loc,"",%progbits
 625              	.Ldebug_loc0:
 626              	.LLST0:
 627 0000 00000000 		.4byte	.LFB0
 628 0004 02000000 		.4byte	.LCFI0
 629 0008 0200     		.2byte	0x2
 630 000a 7D       		.byte	0x7d
 631 000b 00       		.sleb128 0
 632 000c 02000000 		.4byte	.LCFI0
 633 0010 64000000 		.4byte	.LFE0
 634 0014 0200     		.2byte	0x2
 635 0016 7D       		.byte	0x7d
 636 0017 08       		.sleb128 8
 637 0018 00000000 		.4byte	0
ARM GAS  /var/folders/wv/bpgj319905s5rl92drfwf9k40000gn/T//ccs5NhWZ.s 			page 14


 638 001c 00000000 		.4byte	0
 639              	.LLST1:
 640 0020 04000000 		.4byte	.LVL1
 641 0024 12000000 		.4byte	.LVL3
 642 0028 0100     		.2byte	0x1
 643 002a 51       		.byte	0x51
 644 002b 00000000 		.4byte	0
 645 002f 00000000 		.4byte	0
 646              		.section	.debug_aranges,"",%progbits
 647 0000 24000000 		.4byte	0x24
 648 0004 0200     		.2byte	0x2
 649 0006 00000000 		.4byte	.Ldebug_info0
 650 000a 04       		.byte	0x4
 651 000b 00       		.byte	0
 652 000c 0000     		.2byte	0
 653 000e 0000     		.2byte	0
 654 0010 00000000 		.4byte	.LFB0
 655 0014 64000000 		.4byte	.LFE0-.LFB0
 656 0018 00000000 		.4byte	.LFB1
 657 001c 02000000 		.4byte	.LFE1-.LFB1
 658 0020 00000000 		.4byte	0
 659 0024 00000000 		.4byte	0
 660              		.section	.debug_ranges,"",%progbits
 661              	.Ldebug_ranges0:
 662 0000 00000000 		.4byte	.LFB0
 663 0004 64000000 		.4byte	.LFE0
 664 0008 00000000 		.4byte	.LFB1
 665 000c 02000000 		.4byte	.LFE1
 666 0010 00000000 		.4byte	0
 667 0014 00000000 		.4byte	0
 668              		.section	.debug_macro,"",%progbits
 669              	.Ldebug_macro0:
 670 0000 0400     		.2byte	0x4
 671 0002 02       		.byte	0x2
 672 0003 00000000 		.4byte	.Ldebug_line0
 673 0007 07       		.byte	0x7
 674 0008 00000000 		.4byte	.Ldebug_macro1
 675 000c 03       		.byte	0x3
 676 000d 00       		.uleb128 0
 677 000e 01       		.uleb128 0x1
 678 000f 04       		.byte	0x4
 679 0010 00       		.byte	0
 680              		.section	.debug_macro,"G",%progbits,wm4.1.8ebf1c990d6a0cbee7a5e554ec03ca59,comdat
 681              	.Ldebug_macro1:
 682 0000 0400     		.2byte	0x4
 683 0002 00       		.byte	0
 684 0003 05       		.byte	0x5
 685 0004 01       		.uleb128 0x1
 686 0005 72120000 		.4byte	.LASF16
 687 0009 05       		.byte	0x5
 688 000a 01       		.uleb128 0x1
 689 000b B01A0000 		.4byte	.LASF17
 690 000f 05       		.byte	0x5
 691 0010 01       		.uleb128 0x1
 692 0011 1A040000 		.4byte	.LASF18
 693 0015 05       		.byte	0x5
 694 0016 01       		.uleb128 0x1
ARM GAS  /var/folders/wv/bpgj319905s5rl92drfwf9k40000gn/T//ccs5NhWZ.s 			page 15


 695 0017 17030000 		.4byte	.LASF19
 696 001b 05       		.byte	0x5
 697 001c 01       		.uleb128 0x1
 698 001d 670C0000 		.4byte	.LASF20
 699 0021 05       		.byte	0x5
 700 0022 01       		.uleb128 0x1
 701 0023 D20F0000 		.4byte	.LASF21
 702 0027 05       		.byte	0x5
 703 0028 01       		.uleb128 0x1
 704 0029 E51A0000 		.4byte	.LASF22
 705 002d 05       		.byte	0x5
 706 002e 01       		.uleb128 0x1
 707 002f 9C170000 		.4byte	.LASF23
 708 0033 05       		.byte	0x5
 709 0034 01       		.uleb128 0x1
 710 0035 E2090000 		.4byte	.LASF24
 711 0039 05       		.byte	0x5
 712 003a 01       		.uleb128 0x1
 713 003b AD120000 		.4byte	.LASF25
 714 003f 05       		.byte	0x5
 715 0040 01       		.uleb128 0x1
 716 0041 9E0F0000 		.4byte	.LASF26
 717 0045 05       		.byte	0x5
 718 0046 01       		.uleb128 0x1
 719 0047 41110000 		.4byte	.LASF27
 720 004b 05       		.byte	0x5
 721 004c 01       		.uleb128 0x1
 722 004d F91B0000 		.4byte	.LASF28
 723 0051 05       		.byte	0x5
 724 0052 01       		.uleb128 0x1
 725 0053 9C150000 		.4byte	.LASF29
 726 0057 05       		.byte	0x5
 727 0058 01       		.uleb128 0x1
 728 0059 CA1C0000 		.4byte	.LASF30
 729 005d 05       		.byte	0x5
 730 005e 01       		.uleb128 0x1
 731 005f 880B0000 		.4byte	.LASF31
 732 0063 05       		.byte	0x5
 733 0064 01       		.uleb128 0x1
 734 0065 75100000 		.4byte	.LASF32
 735 0069 05       		.byte	0x5
 736 006a 01       		.uleb128 0x1
 737 006b DC060000 		.4byte	.LASF33
 738 006f 05       		.byte	0x5
 739 0070 01       		.uleb128 0x1
 740 0071 250B0000 		.4byte	.LASF34
 741 0075 05       		.byte	0x5
 742 0076 01       		.uleb128 0x1
 743 0077 260E0000 		.4byte	.LASF35
 744 007b 05       		.byte	0x5
 745 007c 01       		.uleb128 0x1
 746 007d 4E160000 		.4byte	.LASF36
 747 0081 05       		.byte	0x5
 748 0082 01       		.uleb128 0x1
 749 0083 50090000 		.4byte	.LASF37
 750 0087 05       		.byte	0x5
 751 0088 01       		.uleb128 0x1
ARM GAS  /var/folders/wv/bpgj319905s5rl92drfwf9k40000gn/T//ccs5NhWZ.s 			page 16


 752 0089 69060000 		.4byte	.LASF38
 753 008d 05       		.byte	0x5
 754 008e 01       		.uleb128 0x1
 755 008f 7C000000 		.4byte	.LASF39
 756 0093 05       		.byte	0x5
 757 0094 01       		.uleb128 0x1
 758 0095 791D0000 		.4byte	.LASF40
 759 0099 05       		.byte	0x5
 760 009a 01       		.uleb128 0x1
 761 009b 6F110000 		.4byte	.LASF41
 762 009f 05       		.byte	0x5
 763 00a0 01       		.uleb128 0x1
 764 00a1 18170000 		.4byte	.LASF42
 765 00a5 05       		.byte	0x5
 766 00a6 01       		.uleb128 0x1
 767 00a7 A40D0000 		.4byte	.LASF43
 768 00ab 05       		.byte	0x5
 769 00ac 01       		.uleb128 0x1
 770 00ad 27110000 		.4byte	.LASF44
 771 00b1 05       		.byte	0x5
 772 00b2 01       		.uleb128 0x1
 773 00b3 86070000 		.4byte	.LASF45
 774 00b7 05       		.byte	0x5
 775 00b8 01       		.uleb128 0x1
 776 00b9 E9070000 		.4byte	.LASF46
 777 00bd 05       		.byte	0x5
 778 00be 01       		.uleb128 0x1
 779 00bf ED000000 		.4byte	.LASF47
 780 00c3 05       		.byte	0x5
 781 00c4 01       		.uleb128 0x1
 782 00c5 1F010000 		.4byte	.LASF48
 783 00c9 05       		.byte	0x5
 784 00ca 01       		.uleb128 0x1
 785 00cb BA040000 		.4byte	.LASF49
 786 00cf 05       		.byte	0x5
 787 00d0 01       		.uleb128 0x1
 788 00d1 841B0000 		.4byte	.LASF50
 789 00d5 05       		.byte	0x5
 790 00d6 01       		.uleb128 0x1
 791 00d7 C21B0000 		.4byte	.LASF51
 792 00db 05       		.byte	0x5
 793 00dc 01       		.uleb128 0x1
 794 00dd 35170000 		.4byte	.LASF52
 795 00e1 05       		.byte	0x5
 796 00e2 01       		.uleb128 0x1
 797 00e3 080E0000 		.4byte	.LASF53
 798 00e7 05       		.byte	0x5
 799 00e8 01       		.uleb128 0x1
 800 00e9 AC0A0000 		.4byte	.LASF54
 801 00ed 05       		.byte	0x5
 802 00ee 01       		.uleb128 0x1
 803 00ef BE0D0000 		.4byte	.LASF55
 804 00f3 05       		.byte	0x5
 805 00f4 01       		.uleb128 0x1
 806 00f5 F5020000 		.4byte	.LASF56
 807 00f9 05       		.byte	0x5
 808 00fa 01       		.uleb128 0x1
ARM GAS  /var/folders/wv/bpgj319905s5rl92drfwf9k40000gn/T//ccs5NhWZ.s 			page 17


 809 00fb 3B060000 		.4byte	.LASF57
 810 00ff 05       		.byte	0x5
 811 0100 01       		.uleb128 0x1
 812 0101 6C070000 		.4byte	.LASF58
 813 0105 05       		.byte	0x5
 814 0106 01       		.uleb128 0x1
 815 0107 FF080000 		.4byte	.LASF59
 816 010b 05       		.byte	0x5
 817 010c 01       		.uleb128 0x1
 818 010d 33080000 		.4byte	.LASF60
 819 0111 05       		.byte	0x5
 820 0112 01       		.uleb128 0x1
 821 0113 86100000 		.4byte	.LASF61
 822 0117 05       		.byte	0x5
 823 0118 01       		.uleb128 0x1
 824 0119 F3050000 		.4byte	.LASF62
 825 011d 05       		.byte	0x5
 826 011e 01       		.uleb128 0x1
 827 011f 871C0000 		.4byte	.LASF63
 828 0123 05       		.byte	0x5
 829 0124 01       		.uleb128 0x1
 830 0125 30140000 		.4byte	.LASF64
 831 0129 05       		.byte	0x5
 832 012a 01       		.uleb128 0x1
 833 012b C7010000 		.4byte	.LASF65
 834 012f 05       		.byte	0x5
 835 0130 01       		.uleb128 0x1
 836 0131 2E160000 		.4byte	.LASF66
 837 0135 05       		.byte	0x5
 838 0136 01       		.uleb128 0x1
 839 0137 690B0000 		.4byte	.LASF67
 840 013b 05       		.byte	0x5
 841 013c 01       		.uleb128 0x1
 842 013d 5F180000 		.4byte	.LASF68
 843 0141 05       		.byte	0x5
 844 0142 01       		.uleb128 0x1
 845 0143 79170000 		.4byte	.LASF69
 846 0147 05       		.byte	0x5
 847 0148 01       		.uleb128 0x1
 848 0149 4E210000 		.4byte	.LASF70
 849 014d 05       		.byte	0x5
 850 014e 01       		.uleb128 0x1
 851 014f 50170000 		.4byte	.LASF71
 852 0153 05       		.byte	0x5
 853 0154 01       		.uleb128 0x1
 854 0155 E3150000 		.4byte	.LASF72
 855 0159 05       		.byte	0x5
 856 015a 01       		.uleb128 0x1
 857 015b 61050000 		.4byte	.LASF73
 858 015f 05       		.byte	0x5
 859 0160 01       		.uleb128 0x1
 860 0161 B9080000 		.4byte	.LASF74
 861 0165 05       		.byte	0x5
 862 0166 01       		.uleb128 0x1
 863 0167 65080000 		.4byte	.LASF75
 864 016b 05       		.byte	0x5
 865 016c 01       		.uleb128 0x1
ARM GAS  /var/folders/wv/bpgj319905s5rl92drfwf9k40000gn/T//ccs5NhWZ.s 			page 18


 866 016d 191E0000 		.4byte	.LASF76
 867 0171 05       		.byte	0x5
 868 0172 01       		.uleb128 0x1
 869 0173 7C0E0000 		.4byte	.LASF77
 870 0177 05       		.byte	0x5
 871 0178 01       		.uleb128 0x1
 872 0179 631B0000 		.4byte	.LASF78
 873 017d 05       		.byte	0x5
 874 017e 01       		.uleb128 0x1
 875 017f 311E0000 		.4byte	.LASF79
 876 0183 05       		.byte	0x5
 877 0184 01       		.uleb128 0x1
 878 0185 82130000 		.4byte	.LASF80
 879 0189 05       		.byte	0x5
 880 018a 01       		.uleb128 0x1
 881 018b 13210000 		.4byte	.LASF81
 882 018f 05       		.byte	0x5
 883 0190 01       		.uleb128 0x1
 884 0191 A5050000 		.4byte	.LASF82
 885 0195 05       		.byte	0x5
 886 0196 01       		.uleb128 0x1
 887 0197 AC190000 		.4byte	.LASF83
 888 019b 05       		.byte	0x5
 889 019c 01       		.uleb128 0x1
 890 019d 981E0000 		.4byte	.LASF84
 891 01a1 05       		.byte	0x5
 892 01a2 01       		.uleb128 0x1
 893 01a3 D4150000 		.4byte	.LASF85
 894 01a7 05       		.byte	0x5
 895 01a8 01       		.uleb128 0x1
 896 01a9 BD180000 		.4byte	.LASF86
 897 01ad 05       		.byte	0x5
 898 01ae 01       		.uleb128 0x1
 899 01af 87220000 		.4byte	.LASF87
 900 01b3 05       		.byte	0x5
 901 01b4 01       		.uleb128 0x1
 902 01b5 4C1A0000 		.4byte	.LASF88
 903 01b9 05       		.byte	0x5
 904 01ba 01       		.uleb128 0x1
 905 01bb E30B0000 		.4byte	.LASF89
 906 01bf 05       		.byte	0x5
 907 01c0 01       		.uleb128 0x1
 908 01c1 040F0000 		.4byte	.LASF90
 909 01c5 05       		.byte	0x5
 910 01c6 01       		.uleb128 0x1
 911 01c7 CB140000 		.4byte	.LASF91
 912 01cb 05       		.byte	0x5
 913 01cc 01       		.uleb128 0x1
 914 01cd 87110000 		.4byte	.LASF92
 915 01d1 05       		.byte	0x5
 916 01d2 01       		.uleb128 0x1
 917 01d3 3B1A0000 		.4byte	.LASF93
 918 01d7 05       		.byte	0x5
 919 01d8 01       		.uleb128 0x1
 920 01d9 E9190000 		.4byte	.LASF94
 921 01dd 05       		.byte	0x5
 922 01de 01       		.uleb128 0x1
ARM GAS  /var/folders/wv/bpgj319905s5rl92drfwf9k40000gn/T//ccs5NhWZ.s 			page 19


 923 01df 2C040000 		.4byte	.LASF95
 924 01e3 05       		.byte	0x5
 925 01e4 01       		.uleb128 0x1
 926 01e5 61160000 		.4byte	.LASF96
 927 01e9 05       		.byte	0x5
 928 01ea 01       		.uleb128 0x1
 929 01eb 65150000 		.4byte	.LASF97
 930 01ef 05       		.byte	0x5
 931 01f0 01       		.uleb128 0x1
 932 01f1 98180000 		.4byte	.LASF98
 933 01f5 05       		.byte	0x5
 934 01f6 01       		.uleb128 0x1
 935 01f7 BE150000 		.4byte	.LASF99
 936 01fb 05       		.byte	0x5
 937 01fc 01       		.uleb128 0x1
 938 01fd 611F0000 		.4byte	.LASF100
 939 0201 05       		.byte	0x5
 940 0202 01       		.uleb128 0x1
 941 0203 99010000 		.4byte	.LASF101
 942 0207 05       		.byte	0x5
 943 0208 01       		.uleb128 0x1
 944 0209 41180000 		.4byte	.LASF102
 945 020d 05       		.byte	0x5
 946 020e 01       		.uleb128 0x1
 947 020f 881D0000 		.4byte	.LASF103
 948 0213 05       		.byte	0x5
 949 0214 01       		.uleb128 0x1
 950 0215 5A010000 		.4byte	.LASF104
 951 0219 05       		.byte	0x5
 952 021a 01       		.uleb128 0x1
 953 021b 46100000 		.4byte	.LASF105
 954 021f 05       		.byte	0x5
 955 0220 01       		.uleb128 0x1
 956 0221 4B080000 		.4byte	.LASF106
 957 0225 05       		.byte	0x5
 958 0226 01       		.uleb128 0x1
 959 0227 23000000 		.4byte	.LASF107
 960 022b 05       		.byte	0x5
 961 022c 01       		.uleb128 0x1
 962 022d 48010000 		.4byte	.LASF108
 963 0231 05       		.byte	0x5
 964 0232 01       		.uleb128 0x1
 965 0233 9F140000 		.4byte	.LASF109
 966 0237 05       		.byte	0x5
 967 0238 01       		.uleb128 0x1
 968 0239 F7200000 		.4byte	.LASF110
 969 023d 05       		.byte	0x5
 970 023e 01       		.uleb128 0x1
 971 023f C40C0000 		.4byte	.LASF111
 972 0243 05       		.byte	0x5
 973 0244 01       		.uleb128 0x1
 974 0245 2D0D0000 		.4byte	.LASF112
 975 0249 05       		.byte	0x5
 976 024a 01       		.uleb128 0x1
 977 024b 210C0000 		.4byte	.LASF113
 978 024f 05       		.byte	0x5
 979 0250 01       		.uleb128 0x1
ARM GAS  /var/folders/wv/bpgj319905s5rl92drfwf9k40000gn/T//ccs5NhWZ.s 			page 20


 980 0251 B50B0000 		.4byte	.LASF114
 981 0255 05       		.byte	0x5
 982 0256 01       		.uleb128 0x1
 983 0257 610E0000 		.4byte	.LASF115
 984 025b 05       		.byte	0x5
 985 025c 01       		.uleb128 0x1
 986 025d E5160000 		.4byte	.LASF116
 987 0261 05       		.byte	0x5
 988 0262 01       		.uleb128 0x1
 989 0263 3A0A0000 		.4byte	.LASF117
 990 0267 05       		.byte	0x5
 991 0268 01       		.uleb128 0x1
 992 0269 C3000000 		.4byte	.LASF118
 993 026d 05       		.byte	0x5
 994 026e 01       		.uleb128 0x1
 995 026f 0B160000 		.4byte	.LASF119
 996 0273 05       		.byte	0x5
 997 0274 01       		.uleb128 0x1
 998 0275 81010000 		.4byte	.LASF120
 999 0279 05       		.byte	0x5
 1000 027a 01       		.uleb128 0x1
 1001 027b 3F210000 		.4byte	.LASF121
 1002 027f 05       		.byte	0x5
 1003 0280 01       		.uleb128 0x1
 1004 0281 54110000 		.4byte	.LASF122
 1005 0285 05       		.byte	0x5
 1006 0286 01       		.uleb128 0x1
 1007 0287 F5090000 		.4byte	.LASF123
 1008 028b 05       		.byte	0x5
 1009 028c 01       		.uleb128 0x1
 1010 028d 0E100000 		.4byte	.LASF124
 1011 0291 05       		.byte	0x5
 1012 0292 01       		.uleb128 0x1
 1013 0293 52140000 		.4byte	.LASF125
 1014 0297 05       		.byte	0x5
 1015 0298 01       		.uleb128 0x1
 1016 0299 5F1A0000 		.4byte	.LASF126
 1017 029d 05       		.byte	0x5
 1018 029e 01       		.uleb128 0x1
 1019 029f 65000000 		.4byte	.LASF127
 1020 02a3 05       		.byte	0x5
 1021 02a4 01       		.uleb128 0x1
 1022 02a5 02010000 		.4byte	.LASF128
 1023 02a9 05       		.byte	0x5
 1024 02aa 01       		.uleb128 0x1
 1025 02ab FA110000 		.4byte	.LASF129
 1026 02af 05       		.byte	0x5
 1027 02b0 01       		.uleb128 0x1
 1028 02b1 361B0000 		.4byte	.LASF130
 1029 02b5 05       		.byte	0x5
 1030 02b6 01       		.uleb128 0x1
 1031 02b7 7B0D0000 		.4byte	.LASF131
 1032 02bb 05       		.byte	0x5
 1033 02bc 01       		.uleb128 0x1
 1034 02bd FF1F0000 		.4byte	.LASF132
 1035 02c1 05       		.byte	0x5
 1036 02c2 01       		.uleb128 0x1
ARM GAS  /var/folders/wv/bpgj319905s5rl92drfwf9k40000gn/T//ccs5NhWZ.s 			page 21


 1037 02c3 AA1C0000 		.4byte	.LASF133
 1038 02c7 05       		.byte	0x5
 1039 02c8 01       		.uleb128 0x1
 1040 02c9 62040000 		.4byte	.LASF134
 1041 02cd 05       		.byte	0x5
 1042 02ce 01       		.uleb128 0x1
 1043 02cf 81090000 		.4byte	.LASF135
 1044 02d3 05       		.byte	0x5
 1045 02d4 01       		.uleb128 0x1
 1046 02d5 641E0000 		.4byte	.LASF136
 1047 02d9 05       		.byte	0x5
 1048 02da 01       		.uleb128 0x1
 1049 02db 04220000 		.4byte	.LASF137
 1050 02df 05       		.byte	0x5
 1051 02e0 01       		.uleb128 0x1
 1052 02e1 87120000 		.4byte	.LASF138
 1053 02e5 05       		.byte	0x5
 1054 02e6 01       		.uleb128 0x1
 1055 02e7 510C0000 		.4byte	.LASF139
 1056 02eb 05       		.byte	0x5
 1057 02ec 01       		.uleb128 0x1
 1058 02ed D9190000 		.4byte	.LASF140
 1059 02f1 05       		.byte	0x5
 1060 02f2 01       		.uleb128 0x1
 1061 02f3 D70E0000 		.4byte	.LASF141
 1062 02f7 05       		.byte	0x5
 1063 02f8 01       		.uleb128 0x1
 1064 02f9 3C0B0000 		.4byte	.LASF142
 1065 02fd 05       		.byte	0x5
 1066 02fe 01       		.uleb128 0x1
 1067 02ff 160D0000 		.4byte	.LASF143
 1068 0303 05       		.byte	0x5
 1069 0304 01       		.uleb128 0x1
 1070 0305 F91E0000 		.4byte	.LASF144
 1071 0309 05       		.byte	0x5
 1072 030a 01       		.uleb128 0x1
 1073 030b 9E0E0000 		.4byte	.LASF145
 1074 030f 05       		.byte	0x5
 1075 0310 01       		.uleb128 0x1
 1076 0311 9F0B0000 		.4byte	.LASF146
 1077 0315 05       		.byte	0x5
 1078 0316 01       		.uleb128 0x1
 1079 0317 30100000 		.4byte	.LASF147
 1080 031b 05       		.byte	0x5
 1081 031c 01       		.uleb128 0x1
 1082 031d F3140000 		.4byte	.LASF148
 1083 0321 05       		.byte	0x5
 1084 0322 01       		.uleb128 0x1
 1085 0323 06050000 		.4byte	.LASF149
 1086 0327 05       		.byte	0x5
 1087 0328 01       		.uleb128 0x1
 1088 0329 BE160000 		.4byte	.LASF150
 1089 032d 05       		.byte	0x5
 1090 032e 01       		.uleb128 0x1
 1091 032f 93160000 		.4byte	.LASF151
 1092 0333 05       		.byte	0x5
 1093 0334 01       		.uleb128 0x1
ARM GAS  /var/folders/wv/bpgj319905s5rl92drfwf9k40000gn/T//ccs5NhWZ.s 			page 22


 1094 0335 20220000 		.4byte	.LASF152
 1095 0339 05       		.byte	0x5
 1096 033a 01       		.uleb128 0x1
 1097 033b 241A0000 		.4byte	.LASF153
 1098 033f 05       		.byte	0x5
 1099 0340 01       		.uleb128 0x1
 1100 0341 EB0C0000 		.4byte	.LASF154
 1101 0345 05       		.byte	0x5
 1102 0346 01       		.uleb128 0x1
 1103 0347 3B050000 		.4byte	.LASF155
 1104 034b 05       		.byte	0x5
 1105 034c 01       		.uleb128 0x1
 1106 034d FF0F0000 		.4byte	.LASF156
 1107 0351 05       		.byte	0x5
 1108 0352 01       		.uleb128 0x1
 1109 0353 87140000 		.4byte	.LASF157
 1110 0357 05       		.byte	0x5
 1111 0358 01       		.uleb128 0x1
 1112 0359 4C220000 		.4byte	.LASF158
 1113 035d 05       		.byte	0x5
 1114 035e 01       		.uleb128 0x1
 1115 035f 5D120000 		.4byte	.LASF159
 1116 0363 05       		.byte	0x5
 1117 0364 01       		.uleb128 0x1
 1118 0365 7C160000 		.4byte	.LASF160
 1119 0369 05       		.byte	0x5
 1120 036a 01       		.uleb128 0x1
 1121 036b E80F0000 		.4byte	.LASF161
 1122 036f 05       		.byte	0x5
 1123 0370 01       		.uleb128 0x1
 1124 0371 D7210000 		.4byte	.LASF162
 1125 0375 05       		.byte	0x5
 1126 0376 01       		.uleb128 0x1
 1127 0377 FA100000 		.4byte	.LASF163
 1128 037b 05       		.byte	0x5
 1129 037c 01       		.uleb128 0x1
 1130 037d 82060000 		.4byte	.LASF164
 1131 0381 05       		.byte	0x5
 1132 0382 01       		.uleb128 0x1
 1133 0383 18120000 		.4byte	.LASF165
 1134 0387 05       		.byte	0x5
 1135 0388 01       		.uleb128 0x1
 1136 0389 C20E0000 		.4byte	.LASF166
 1137 038d 05       		.byte	0x5
 1138 038e 01       		.uleb128 0x1
 1139 038f 6E030000 		.4byte	.LASF167
 1140 0393 05       		.byte	0x5
 1141 0394 01       		.uleb128 0x1
 1142 0395 E11E0000 		.4byte	.LASF168
 1143 0399 05       		.byte	0x5
 1144 039a 01       		.uleb128 0x1
 1145 039b 7A190000 		.4byte	.LASF169
 1146 039f 05       		.byte	0x5
 1147 03a0 01       		.uleb128 0x1
 1148 03a1 A4130000 		.4byte	.LASF170
 1149 03a5 05       		.byte	0x5
 1150 03a6 01       		.uleb128 0x1
ARM GAS  /var/folders/wv/bpgj319905s5rl92drfwf9k40000gn/T//ccs5NhWZ.s 			page 23


 1151 03a7 98030000 		.4byte	.LASF171
 1152 03ab 05       		.byte	0x5
 1153 03ac 01       		.uleb128 0x1
 1154 03ad 5A100000 		.4byte	.LASF172
 1155 03b1 05       		.byte	0x5
 1156 03b2 01       		.uleb128 0x1
 1157 03b3 25060000 		.4byte	.LASF173
 1158 03b7 05       		.byte	0x5
 1159 03b8 01       		.uleb128 0x1
 1160 03b9 8C1A0000 		.4byte	.LASF174
 1161 03bd 05       		.byte	0x5
 1162 03be 01       		.uleb128 0x1
 1163 03bf 3C040000 		.4byte	.LASF175
 1164 03c3 05       		.byte	0x5
 1165 03c4 01       		.uleb128 0x1
 1166 03c5 82040000 		.4byte	.LASF176
 1167 03c9 05       		.byte	0x5
 1168 03ca 01       		.uleb128 0x1
 1169 03cb B9050000 		.4byte	.LASF177
 1170 03cf 05       		.byte	0x5
 1171 03d0 01       		.uleb128 0x1
 1172 03d1 B4130000 		.4byte	.LASF178
 1173 03d5 05       		.byte	0x5
 1174 03d6 01       		.uleb128 0x1
 1175 03d7 0A130000 		.4byte	.LASF179
 1176 03db 05       		.byte	0x5
 1177 03dc 01       		.uleb128 0x1
 1178 03dd 991B0000 		.4byte	.LASF180
 1179 03e1 05       		.byte	0x5
 1180 03e2 01       		.uleb128 0x1
 1181 03e3 2B070000 		.4byte	.LASF181
 1182 03e7 05       		.byte	0x5
 1183 03e8 01       		.uleb128 0x1
 1184 03e9 18090000 		.4byte	.LASF182
 1185 03ed 05       		.byte	0x5
 1186 03ee 01       		.uleb128 0x1
 1187 03ef 0E180000 		.4byte	.LASF183
 1188 03f3 05       		.byte	0x5
 1189 03f4 01       		.uleb128 0x1
 1190 03f5 6A130000 		.4byte	.LASF184
 1191 03f9 05       		.byte	0x5
 1192 03fa 01       		.uleb128 0x1
 1193 03fb 10060000 		.4byte	.LASF185
 1194 03ff 05       		.byte	0x5
 1195 0400 01       		.uleb128 0x1
 1196 0401 B1010000 		.4byte	.LASF186
 1197 0405 05       		.byte	0x5
 1198 0406 01       		.uleb128 0x1
 1199 0407 EE060000 		.4byte	.LASF187
 1200 040b 05       		.byte	0x5
 1201 040c 01       		.uleb128 0x1
 1202 040d DB1D0000 		.4byte	.LASF188
 1203 0411 05       		.byte	0x5
 1204 0412 01       		.uleb128 0x1
 1205 0413 AD090000 		.4byte	.LASF189
 1206 0417 05       		.byte	0x5
 1207 0418 01       		.uleb128 0x1
ARM GAS  /var/folders/wv/bpgj319905s5rl92drfwf9k40000gn/T//ccs5NhWZ.s 			page 24


 1208 0419 6B010000 		.4byte	.LASF190
 1209 041d 05       		.byte	0x5
 1210 041e 01       		.uleb128 0x1
 1211 041f 271F0000 		.4byte	.LASF191
 1212 0423 05       		.byte	0x5
 1213 0424 01       		.uleb128 0x1
 1214 0425 53060000 		.4byte	.LASF192
 1215 0429 05       		.byte	0x5
 1216 042a 01       		.uleb128 0x1
 1217 042b 35220000 		.4byte	.LASF193
 1218 042f 05       		.byte	0x5
 1219 0430 01       		.uleb128 0x1
 1220 0431 A71E0000 		.4byte	.LASF194
 1221 0435 05       		.byte	0x5
 1222 0436 01       		.uleb128 0x1
 1223 0437 C0120000 		.4byte	.LASF195
 1224 043b 05       		.byte	0x5
 1225 043c 01       		.uleb128 0x1
 1226 043d D5040000 		.4byte	.LASF196
 1227 0441 05       		.byte	0x5
 1228 0442 01       		.uleb128 0x1
 1229 0443 B4140000 		.4byte	.LASF197
 1230 0447 05       		.byte	0x5
 1231 0448 01       		.uleb128 0x1
 1232 0449 830F0000 		.4byte	.LASF198
 1233 044d 05       		.byte	0x5
 1234 044e 01       		.uleb128 0x1
 1235 044f B7100000 		.4byte	.LASF199
 1236 0453 05       		.byte	0x5
 1237 0454 01       		.uleb128 0x1
 1238 0455 F5170000 		.4byte	.LASF200
 1239 0459 05       		.byte	0x5
 1240 045a 01       		.uleb128 0x1
 1241 045b C0110000 		.4byte	.LASF201
 1242 045f 05       		.byte	0x5
 1243 0460 01       		.uleb128 0x1
 1244 0461 6C1C0000 		.4byte	.LASF202
 1245 0465 05       		.byte	0x5
 1246 0466 01       		.uleb128 0x1
 1247 0467 0C1C0000 		.4byte	.LASF203
 1248 046b 05       		.byte	0x5
 1249 046c 01       		.uleb128 0x1
 1250 046d 5D0F0000 		.4byte	.LASF204
 1251 0471 05       		.byte	0x5
 1252 0472 01       		.uleb128 0x1
 1253 0473 A8040000 		.4byte	.LASF205
 1254 0477 05       		.byte	0x5
 1255 0478 01       		.uleb128 0x1
 1256 0479 7E150000 		.4byte	.LASF206
 1257 047d 05       		.byte	0x5
 1258 047e 01       		.uleb128 0x1
 1259 047f 210A0000 		.4byte	.LASF207
 1260 0483 05       		.byte	0x5
 1261 0484 01       		.uleb128 0x1
 1262 0485 52030000 		.4byte	.LASF208
 1263 0489 05       		.byte	0x5
 1264 048a 01       		.uleb128 0x1
ARM GAS  /var/folders/wv/bpgj319905s5rl92drfwf9k40000gn/T//ccs5NhWZ.s 			page 25


 1265 048b 4F040000 		.4byte	.LASF209
 1266 048f 05       		.byte	0x5
 1267 0490 01       		.uleb128 0x1
 1268 0491 E6180000 		.4byte	.LASF210
 1269 0495 05       		.byte	0x5
 1270 0496 01       		.uleb128 0x1
 1271 0497 E10D0000 		.4byte	.LASF211
 1272 049b 05       		.byte	0x5
 1273 049c 01       		.uleb128 0x1
 1274 049d 600D0000 		.4byte	.LASF212
 1275 04a1 05       		.byte	0x5
 1276 04a2 01       		.uleb128 0x1
 1277 04a3 2A010000 		.4byte	.LASF213
 1278 04a7 05       		.byte	0x5
 1279 04a8 01       		.uleb128 0x1
 1280 04a9 1C190000 		.4byte	.LASF214
 1281 04ad 05       		.byte	0x5
 1282 04ae 01       		.uleb128 0x1
 1283 04af 531E0000 		.4byte	.LASF215
 1284 04b3 05       		.byte	0x5
 1285 04b4 01       		.uleb128 0x1
 1286 04b5 F41D0000 		.4byte	.LASF216
 1287 04b9 05       		.byte	0x5
 1288 04ba 01       		.uleb128 0x1
 1289 04bb 7E1E0000 		.4byte	.LASF217
 1290 04bf 05       		.byte	0x5
 1291 04c0 01       		.uleb128 0x1
 1292 04c1 51190000 		.4byte	.LASF218
 1293 04c5 05       		.byte	0x5
 1294 04c6 01       		.uleb128 0x1
 1295 04c7 030D0000 		.4byte	.LASF219
 1296 04cb 05       		.byte	0x5
 1297 04cc 01       		.uleb128 0x1
 1298 04cd D4180000 		.4byte	.LASF220
 1299 04d1 05       		.byte	0x5
 1300 04d2 01       		.uleb128 0x1
 1301 04d3 68140000 		.4byte	.LASF221
 1302 04d7 05       		.byte	0x5
 1303 04d8 01       		.uleb128 0x1
 1304 04d9 440D0000 		.4byte	.LASF222
 1305 04dd 05       		.byte	0x5
 1306 04de 01       		.uleb128 0x1
 1307 04df 8F190000 		.4byte	.LASF223
 1308 04e3 05       		.byte	0x5
 1309 04e4 01       		.uleb128 0x1
 1310 04e5 1D0F0000 		.4byte	.LASF224
 1311 04e9 05       		.byte	0x5
 1312 04ea 01       		.uleb128 0x1
 1313 04eb 4F050000 		.4byte	.LASF225
 1314 04ef 05       		.byte	0x5
 1315 04f0 01       		.uleb128 0x1
 1316 04f1 9B080000 		.4byte	.LASF226
 1317 04f5 05       		.byte	0x5
 1318 04f6 01       		.uleb128 0x1
 1319 04f7 AD070000 		.4byte	.LASF227
 1320 04fb 05       		.byte	0x5
 1321 04fc 01       		.uleb128 0x1
ARM GAS  /var/folders/wv/bpgj319905s5rl92drfwf9k40000gn/T//ccs5NhWZ.s 			page 26


 1322 04fd E90A0000 		.4byte	.LASF228
 1323 0501 05       		.byte	0x5
 1324 0502 01       		.uleb128 0x1
 1325 0503 6F0F0000 		.4byte	.LASF229
 1326 0507 05       		.byte	0x5
 1327 0508 01       		.uleb128 0x1
 1328 0509 2F0C0000 		.4byte	.LASF230
 1329 050d 05       		.byte	0x5
 1330 050e 01       		.uleb128 0x1
 1331 050f 8E050000 		.4byte	.LASF231
 1332 0513 05       		.byte	0x5
 1333 0514 01       		.uleb128 0x1
 1334 0515 D91C0000 		.4byte	.LASF232
 1335 0519 05       		.byte	0x5
 1336 051a 01       		.uleb128 0x1
 1337 051b 4A0B0000 		.4byte	.LASF233
 1338 051f 05       		.byte	0x5
 1339 0520 01       		.uleb128 0x1
 1340 0521 CF0B0000 		.4byte	.LASF234
 1341 0525 05       		.byte	0x5
 1342 0526 01       		.uleb128 0x1
 1343 0527 99200000 		.4byte	.LASF235
 1344 052b 05       		.byte	0x5
 1345 052c 01       		.uleb128 0x1
 1346 052d 401F0000 		.4byte	.LASF236
 1347 0531 05       		.byte	0x5
 1348 0532 01       		.uleb128 0x1
 1349 0533 B2060000 		.4byte	.LASF237
 1350 0537 05       		.byte	0x5
 1351 0538 01       		.uleb128 0x1
 1352 0539 060B0000 		.4byte	.LASF238
 1353 053d 05       		.byte	0x5
 1354 053e 01       		.uleb128 0x1
 1355 053f 121F0000 		.4byte	.LASF239
 1356 0543 05       		.byte	0x5
 1357 0544 01       		.uleb128 0x1
 1358 0545 DF050000 		.4byte	.LASF240
 1359 0549 05       		.byte	0x5
 1360 054a 01       		.uleb128 0x1
 1361 054b EE010000 		.4byte	.LASF241
 1362 054f 05       		.byte	0x5
 1363 0550 01       		.uleb128 0x1
 1364 0551 FB1C0000 		.4byte	.LASF242
 1365 0555 05       		.byte	0x5
 1366 0556 01       		.uleb128 0x1
 1367 0557 C41A0000 		.4byte	.LASF243
 1368 055b 05       		.byte	0x5
 1369 055c 01       		.uleb128 0x1
 1370 055d 5A070000 		.4byte	.LASF244
 1371 0561 05       		.byte	0x5
 1372 0562 01       		.uleb128 0x1
 1373 0563 66220000 		.4byte	.LASF245
 1374 0567 05       		.byte	0x5
 1375 0568 01       		.uleb128 0x1
 1376 0569 021A0000 		.4byte	.LASF246
 1377 056d 05       		.byte	0x5
 1378 056e 01       		.uleb128 0x1
ARM GAS  /var/folders/wv/bpgj319905s5rl92drfwf9k40000gn/T//ccs5NhWZ.s 			page 27


 1379 056f 7D180000 		.4byte	.LASF247
 1380 0573 05       		.byte	0x5
 1381 0574 01       		.uleb128 0x1
 1382 0575 A2020000 		.4byte	.LASF248
 1383 0579 05       		.byte	0x5
 1384 057a 01       		.uleb128 0x1
 1385 057b F7120000 		.4byte	.LASF249
 1386 057f 05       		.byte	0x5
 1387 0580 01       		.uleb128 0x1
 1388 0581 05170000 		.4byte	.LASF250
 1389 0585 05       		.byte	0x5
 1390 0586 01       		.uleb128 0x1
 1391 0587 E81F0000 		.4byte	.LASF251
 1392 058b 05       		.byte	0x5
 1393 058c 01       		.uleb128 0x1
 1394 058d 64090000 		.4byte	.LASF252
 1395 0591 05       		.byte	0x5
 1396 0592 01       		.uleb128 0x1
 1397 0593 8E0A0000 		.4byte	.LASF253
 1398 0597 05       		.byte	0x5
 1399 0598 01       		.uleb128 0x1
 1400 0599 B1030000 		.4byte	.LASF254
 1401 059d 05       		.byte	0x5
 1402 059e 01       		.uleb128 0x1
 1403 059f 89080000 		.4byte	.LASF255
 1404 05a3 05       		.byte	0x5
 1405 05a4 01       		.uleb128 0x1
 1406 05a5 95210000 		.4byte	.LASF256
 1407 05a9 05       		.byte	0x5
 1408 05aa 01       		.uleb128 0x1
 1409 05ab 23180000 		.4byte	.LASF257
 1410 05af 05       		.byte	0x5
 1411 05b0 01       		.uleb128 0x1
 1412 05b1 511C0000 		.4byte	.LASF258
 1413 05b5 05       		.byte	0x5
 1414 05b6 01       		.uleb128 0x1
 1415 05b7 E7100000 		.4byte	.LASF259
 1416 05bb 05       		.byte	0x5
 1417 05bc 01       		.uleb128 0x1
 1418 05bd 85030000 		.4byte	.LASF260
 1419 05c1 05       		.byte	0x5
 1420 05c2 01       		.uleb128 0x1
 1421 05c3 5D200000 		.4byte	.LASF261
 1422 05c7 05       		.byte	0x5
 1423 05c8 01       		.uleb128 0x1
 1424 05c9 DF080000 		.4byte	.LASF262
 1425 05cd 05       		.byte	0x5
 1426 05ce 01       		.uleb128 0x1
 1427 05cf 35030000 		.4byte	.LASF263
 1428 05d3 05       		.byte	0x5
 1429 05d4 01       		.uleb128 0x1
 1430 05d5 AF1B0000 		.4byte	.LASF264
 1431 05d9 05       		.byte	0x5
 1432 05da 01       		.uleb128 0x1
 1433 05db E2020000 		.4byte	.LASF265
 1434 05df 05       		.byte	0x5
 1435 05e0 01       		.uleb128 0x1
ARM GAS  /var/folders/wv/bpgj319905s5rl92drfwf9k40000gn/T//ccs5NhWZ.s 			page 28


 1436 05e1 551D0000 		.4byte	.LASF266
 1437 05e5 05       		.byte	0x5
 1438 05e6 01       		.uleb128 0x1
 1439 05e7 BE170000 		.4byte	.LASF267
 1440 05eb 05       		.byte	0x5
 1441 05ec 01       		.uleb128 0x1
 1442 05ed 16080000 		.4byte	.LASF268
 1443 05f1 05       		.byte	0x5
 1444 05f2 01       		.uleb128 0x1
 1445 05f3 00000000 		.4byte	.LASF269
 1446 05f7 05       		.byte	0x5
 1447 05f8 01       		.uleb128 0x1
 1448 05f9 08190000 		.4byte	.LASF270
 1449 05fd 05       		.byte	0x5
 1450 05fe 01       		.uleb128 0x1
 1451 05ff B51D0000 		.4byte	.LASF271
 1452 0603 05       		.byte	0x5
 1453 0604 01       		.uleb128 0x1
 1454 0605 C3030000 		.4byte	.LASF272
 1455 0609 05       		.byte	0x5
 1456 060a 01       		.uleb128 0x1
 1457 060b 9D1F0000 		.4byte	.LASF273
 1458 060f 05       		.byte	0x5
 1459 0610 01       		.uleb128 0x1
 1460 0611 CD1E0000 		.4byte	.LASF274
 1461 0615 05       		.byte	0x5
 1462 0616 01       		.uleb128 0x1
 1463 0617 891F0000 		.4byte	.LASF275
 1464 061b 05       		.byte	0x5
 1465 061c 01       		.uleb128 0x1
 1466 061d FA0B0000 		.4byte	.LASF276
 1467 0621 05       		.byte	0x5
 1468 0622 01       		.uleb128 0x1
 1469 0623 1E200000 		.4byte	.LASF277
 1470 0627 05       		.byte	0x5
 1471 0628 01       		.uleb128 0x1
 1472 0629 31090000 		.4byte	.LASF278
 1473 062d 05       		.byte	0x5
 1474 062e 01       		.uleb128 0x1
 1475 062f AE000000 		.4byte	.LASF279
 1476 0633 05       		.byte	0x5
 1477 0634 01       		.uleb128 0x1
 1478 0635 BD0F0000 		.4byte	.LASF280
 1479 0639 05       		.byte	0x5
 1480 063a 01       		.uleb128 0x1
 1481 063b EB0E0000 		.4byte	.LASF281
 1482 063f 05       		.byte	0x5
 1483 0640 01       		.uleb128 0x1
 1484 0641 BC1F0000 		.4byte	.LASF282
 1485 0645 05       		.byte	0x5
 1486 0646 01       		.uleb128 0x1
 1487 0647 07020000 		.4byte	.LASF283
 1488 064b 05       		.byte	0x5
 1489 064c 01       		.uleb128 0x1
 1490 064d 14140000 		.4byte	.LASF284
 1491 0651 05       		.byte	0x5
 1492 0652 01       		.uleb128 0x1
ARM GAS  /var/folders/wv/bpgj319905s5rl92drfwf9k40000gn/T//ccs5NhWZ.s 			page 29


 1493 0653 4E0A0000 		.4byte	.LASF285
 1494 0657 05       		.byte	0x5
 1495 0658 01       		.uleb128 0x1
 1496 0659 14000000 		.4byte	.LASF286
 1497 065d 05       		.byte	0x5
 1498 065e 01       		.uleb128 0x1
 1499 065f 57000000 		.4byte	.LASF287
 1500 0663 05       		.byte	0x5
 1501 0664 01       		.uleb128 0x1
 1502 0665 390E0000 		.4byte	.LASF288
 1503 0669 05       		.byte	0x5
 1504 066a 01       		.uleb128 0x1
 1505 066b 20160000 		.4byte	.LASF289
 1506 066f 05       		.byte	0x5
 1507 0670 01       		.uleb128 0x1
 1508 0671 CF100000 		.4byte	.LASF290
 1509 0675 05       		.byte	0x5
 1510 0676 01       		.uleb128 0x1
 1511 0677 B0150000 		.4byte	.LASF291
 1512 067b 05       		.byte	0x5
 1513 067c 01       		.uleb128 0x1
 1514 067d 7E0A0000 		.4byte	.LASF292
 1515 0681 05       		.byte	0x5
 1516 0682 01       		.uleb128 0x1
 1517 0683 D4090000 		.4byte	.LASF293
 1518 0687 05       		.byte	0x5
 1519 0688 01       		.uleb128 0x1
 1520 0689 B1110000 		.4byte	.LASF294
 1521 068d 05       		.byte	0x5
 1522 068e 01       		.uleb128 0x1
 1523 068f 05140000 		.4byte	.LASF295
 1524 0693 05       		.byte	0x5
 1525 0694 01       		.uleb128 0x1
 1526 0695 A1110000 		.4byte	.LASF296
 1527 0699 05       		.byte	0x5
 1528 069a 01       		.uleb128 0x1
 1529 069b 420C0000 		.4byte	.LASF297
 1530 069f 05       		.byte	0x5
 1531 06a0 01       		.uleb128 0x1
 1532 06a1 F80D0000 		.4byte	.LASF298
 1533 06a5 05       		.byte	0x5
 1534 06a6 01       		.uleb128 0x1
 1535 06a7 541B0000 		.4byte	.LASF299
 1536 06ab 05       		.byte	0x5
 1537 06ac 01       		.uleb128 0x1
 1538 06ad 2E190000 		.4byte	.LASF300
 1539 06b1 05       		.byte	0x5
 1540 06b2 01       		.uleb128 0x1
 1541 06b3 E6170000 		.4byte	.LASF301
 1542 06b7 05       		.byte	0x5
 1543 06b8 01       		.uleb128 0x1
 1544 06b9 4C120000 		.4byte	.LASF302
 1545 06bd 05       		.byte	0x5
 1546 06be 01       		.uleb128 0x1
 1547 06bf D0080000 		.4byte	.LASF303
 1548 06c3 05       		.byte	0x5
 1549 06c4 01       		.uleb128 0x1
ARM GAS  /var/folders/wv/bpgj319905s5rl92drfwf9k40000gn/T//ccs5NhWZ.s 			page 30


 1550 06c5 6C190000 		.4byte	.LASF304
 1551 06c9 05       		.byte	0x5
 1552 06ca 01       		.uleb128 0x1
 1553 06cb 22140000 		.4byte	.LASF305
 1554 06cf 05       		.byte	0x5
 1555 06d0 01       		.uleb128 0x1
 1556 06d1 F9180000 		.4byte	.LASF306
 1557 06d5 05       		.byte	0x5
 1558 06d6 01       		.uleb128 0x1
 1559 06d7 CC1D0000 		.4byte	.LASF307
 1560 06db 05       		.byte	0x5
 1561 06dc 01       		.uleb128 0x1
 1562 06dd 480E0000 		.4byte	.LASF308
 1563 06e1 05       		.byte	0x5
 1564 06e2 01       		.uleb128 0x1
 1565 06e3 AF170000 		.4byte	.LASF309
 1566 06e7 05       		.byte	0x5
 1567 06e8 01       		.uleb128 0x1
 1568 06e9 78220000 		.4byte	.LASF310
 1569 06ed 05       		.byte	0x5
 1570 06ee 01       		.uleb128 0x1
 1571 06ef 1C070000 		.4byte	.LASF311
 1572 06f3 05       		.byte	0x5
 1573 06f4 01       		.uleb128 0x1
 1574 06f5 EA1B0000 		.4byte	.LASF312
 1575 06f9 05       		.byte	0x5
 1576 06fa 01       		.uleb128 0x1
 1577 06fb 960C0000 		.4byte	.LASF313
 1578 06ff 05       		.byte	0x5
 1579 0700 01       		.uleb128 0x1
 1580 0701 72200000 		.4byte	.LASF314
 1581 0705 05       		.byte	0x5
 1582 0706 01       		.uleb128 0x1
 1583 0707 B20E0000 		.4byte	.LASF315
 1584 070b 05       		.byte	0x5
 1585 070c 01       		.uleb128 0x1
 1586 070d 0A040000 		.4byte	.LASF316
 1587 0711 05       		.byte	0x5
 1588 0712 01       		.uleb128 0x1
 1589 0713 ED030000 		.4byte	.LASF317
 1590 0717 05       		.byte	0x5
 1591 0718 01       		.uleb128 0x1
 1592 0719 47000000 		.4byte	.LASF318
 1593 071d 05       		.byte	0x5
 1594 071e 01       		.uleb128 0x1
 1595 071f 9D120000 		.4byte	.LASF319
 1596 0723 05       		.byte	0x5
 1597 0724 01       		.uleb128 0x1
 1598 0725 D40A0000 		.4byte	.LASF320
 1599 0729 05       		.byte	0x5
 1600 072a 01       		.uleb128 0x1
 1601 072b 82200000 		.4byte	.LASF321
 1602 072f 05       		.byte	0x5
 1603 0730 01       		.uleb128 0x1
 1604 0731 EF130000 		.4byte	.LASF322
 1605 0735 05       		.byte	0x5
 1606 0736 01       		.uleb128 0x1
ARM GAS  /var/folders/wv/bpgj319905s5rl92drfwf9k40000gn/T//ccs5NhWZ.s 			page 31


 1607 0737 A3100000 		.4byte	.LASF323
 1608 073b 05       		.byte	0x5
 1609 073c 01       		.uleb128 0x1
 1610 073d 48200000 		.4byte	.LASF324
 1611 0741 05       		.byte	0x5
 1612 0742 01       		.uleb128 0x1
 1613 0743 780C0000 		.4byte	.LASF325
 1614 0747 05       		.byte	0x5
 1615 0748 01       		.uleb128 0x1
 1616 0749 4C130000 		.4byte	.LASF326
 1617 074d 05       		.byte	0x5
 1618 074e 01       		.uleb128 0x1
 1619 074f 17150000 		.4byte	.LASF327
 1620 0753 05       		.byte	0x5
 1621 0754 01       		.uleb128 0x1
 1622 0755 5C0A0000 		.4byte	.LASF328
 1623 0759 05       		.byte	0x5
 1624 075a 01       		.uleb128 0x1
 1625 075b 60020000 		.4byte	.LASF329
 1626 075f 05       		.byte	0x5
 1627 0760 01       		.uleb128 0x1
 1628 0761 71210000 		.4byte	.LASF330
 1629 0765 05       		.byte	0x5
 1630 0766 01       		.uleb128 0x1
 1631 0767 DA120000 		.4byte	.LASF331
 1632 076b 05       		.byte	0x5
 1633 076c 01       		.uleb128 0x1
 1634 076d 90000000 		.4byte	.LASF332
 1635 0771 05       		.byte	0x5
 1636 0772 01       		.uleb128 0x1
 1637 0773 3E0F0000 		.4byte	.LASF333
 1638 0777 05       		.byte	0x5
 1639 0778 01       		.uleb128 0x1
 1640 0779 28020000 		.4byte	.LASF334
 1641 077d 05       		.byte	0x5
 1642 077e 01       		.uleb128 0x1
 1643 077f B6210000 		.4byte	.LASF335
 1644 0783 05       		.byte	0x5
 1645 0784 01       		.uleb128 0x1
 1646 0785 050A0000 		.4byte	.LASF336
 1647 0789 05       		.byte	0x5
 1648 078a 01       		.uleb128 0x1
 1649 078b CD070000 		.4byte	.LASF337
 1650 078f 05       		.byte	0x5
 1651 0790 01       		.uleb128 0x1
 1652 0791 37130000 		.4byte	.LASF338
 1653 0795 05       		.byte	0x5
 1654 0796 01       		.uleb128 0x1
 1655 0797 8E020000 		.4byte	.LASF339
 1656 079b 05       		.byte	0x5
 1657 079c 01       		.uleb128 0x1
 1658 079d 43070000 		.4byte	.LASF340
 1659 07a1 05       		.byte	0x5
 1660 07a2 01       		.uleb128 0x1
 1661 07a3 7D140000 		.4byte	.LASF341
 1662 07a7 05       		.byte	0x5
 1663 07a8 01       		.uleb128 0x1
ARM GAS  /var/folders/wv/bpgj319905s5rl92drfwf9k40000gn/T//ccs5NhWZ.s 			page 32


 1664 07a9 300F0000 		.4byte	.LASF342
 1665 07ad 05       		.byte	0x5
 1666 07ae 01       		.uleb128 0x1
 1667 07af DE1B0000 		.4byte	.LASF343
 1668 07b3 05       		.byte	0x5
 1669 07b4 01       		.uleb128 0x1
 1670 07b5 700E0000 		.4byte	.LASF344
 1671 07b9 05       		.byte	0x5
 1672 07ba 01       		.uleb128 0x1
 1673 07bb BE020000 		.4byte	.LASF345
 1674 07bf 05       		.byte	0x5
 1675 07c0 01       		.uleb128 0x1
 1676 07c1 271D0000 		.4byte	.LASF346
 1677 07c5 05       		.byte	0x5
 1678 07c6 01       		.uleb128 0x1
 1679 07c7 81020000 		.4byte	.LASF347
 1680 07cb 05       		.byte	0x5
 1681 07cc 01       		.uleb128 0x1
 1682 07cd CC020000 		.4byte	.LASF348
 1683 07d1 05       		.byte	0x5
 1684 07d2 01       		.uleb128 0x1
 1685 07d3 DD130000 		.4byte	.LASF349
 1686 07d7 05       		.byte	0x5
 1687 07d8 01       		.uleb128 0x1
 1688 07d9 B10F0000 		.4byte	.LASF350
 1689 07dd 05       		.byte	0x5
 1690 07de 01       		.uleb128 0x1
 1691 07df CA190000 		.4byte	.LASF351
 1692 07e3 05       		.byte	0x5
 1693 07e4 01       		.uleb128 0x1
 1694 07e5 341D0000 		.4byte	.LASF352
 1695 07e9 05       		.byte	0x5
 1696 07ea 01       		.uleb128 0x1
 1697 07eb 7D120000 		.4byte	.LASF353
 1698 07ef 05       		.byte	0x5
 1699 07f0 00       		.uleb128 0
 1700 07f1 4C020000 		.4byte	.LASF354
 1701 07f5 00       		.byte	0
 1702              		.section	.debug_line,"",%progbits
 1703              	.Ldebug_line0:
 1704 0000 6B000000 		.section	.debug_str,"MS",%progbits,1
 1704      02002000 
 1704      00000201 
 1704      FB0E0D00 
 1704      01010101 
 1705              	.LASF269:
 1706 0000 5F5F554C 		.ascii	"__ULACCUM_FBIT__ 32\000"
 1706      41434355 
 1706      4D5F4642 
 1706      49545F5F 
 1706      20333200 
 1707              	.LASF286:
 1708 0014 5F5F4851 		.ascii	"__HQ_FBIT__ 15\000"
 1708      5F464249 
 1708      545F5F20 
 1708      313500
 1709              	.LASF107:
ARM GAS  /var/folders/wv/bpgj319905s5rl92drfwf9k40000gn/T//ccs5NhWZ.s 			page 33


 1710 0023 5F5F494E 		.ascii	"__INT64_MAX__ 9223372036854775807LL\000"
 1710      5436345F 
 1710      4D41585F 
 1710      5F203932 
 1710      32333337 
 1711              	.LASF318:
 1712 0047 5F5F5554 		.ascii	"__UTA_FBIT__ 64\000"
 1712      415F4642 
 1712      49545F5F 
 1712      20363400 
 1713              	.LASF287:
 1714 0057 5F5F4851 		.ascii	"__HQ_IBIT__ 0\000"
 1714      5F494249 
 1714      545F5F20 
 1714      3000
 1715              	.LASF127:
 1716 0065 5F5F5549 		.ascii	"__UINT64_C(c) c ## ULL\000"
 1716      4E543634 
 1716      5F432863 
 1716      29206320 
 1716      23232055 
 1717              	.LASF39:
 1718 007c 5F5F5349 		.ascii	"__SIZEOF_SIZE_T__ 4\000"
 1718      5A454F46 
 1718      5F53495A 
 1718      455F545F 
 1718      5F203400 
 1719              	.LASF332:
 1720 0090 5F5F4743 		.ascii	"__GCC_ATOMIC_LONG_LOCK_FREE 1\000"
 1720      435F4154 
 1720      4F4D4943 
 1720      5F4C4F4E 
 1720      475F4C4F 
 1721              	.LASF279:
 1722 00ae 5F5F554C 		.ascii	"__ULLACCUM_FBIT__ 32\000"
 1722      4C414343 
 1722      554D5F46 
 1722      4249545F 
 1722      5F203332 
 1723              	.LASF118:
 1724 00c3 5F5F494E 		.ascii	"__INT_LEAST64_MAX__ 9223372036854775807LL\000"
 1724      545F4C45 
 1724      41535436 
 1724      345F4D41 
 1724      585F5F20 
 1725              	.LASF47:
 1726 00ed 5F5F5349 		.ascii	"__SIZEOF_POINTER__ 4\000"
 1726      5A454F46 
 1726      5F504F49 
 1726      4E544552 
 1726      5F5F2034 
 1727              	.LASF128:
 1728 0102 5F5F494E 		.ascii	"__INT_FAST8_MAX__ 2147483647\000"
 1728      545F4641 
 1728      5354385F 
 1728      4D41585F 
 1728      5F203231 
ARM GAS  /var/folders/wv/bpgj319905s5rl92drfwf9k40000gn/T//ccs5NhWZ.s 			page 34


 1729              	.LASF48:
 1730 011f 5F5F474E 		.ascii	"__GNUG__ 4\000"
 1730      55475F5F 
 1730      203400
 1731              	.LASF213:
 1732 012a 5F5F5553 		.ascii	"__USFRACT_EPSILON__ 0x1P-8UHR\000"
 1732      46524143 
 1732      545F4550 
 1732      53494C4F 
 1732      4E5F5F20 
 1733              	.LASF108:
 1734 0148 5F5F5549 		.ascii	"__UINT8_MAX__ 255\000"
 1734      4E54385F 
 1734      4D41585F 
 1734      5F203235 
 1734      3500
 1735              	.LASF104:
 1736 015a 5F5F494E 		.ascii	"__INT8_MAX__ 127\000"
 1736      54385F4D 
 1736      41585F5F 
 1736      20313237 
 1736      00
 1737              	.LASF190:
 1738 016b 5F5F4445 		.ascii	"__DEC64_MANT_DIG__ 16\000"
 1738      4336345F 
 1738      4D414E54 
 1738      5F444947 
 1738      5F5F2031 
 1739              	.LASF120:
 1740 0181 5F5F5549 		.ascii	"__UINT_LEAST8_MAX__ 255\000"
 1740      4E545F4C 
 1740      45415354 
 1740      385F4D41 
 1740      585F5F20 
 1741              	.LASF101:
 1742 0199 5F5F5549 		.ascii	"__UINTMAX_C(c) c ## ULL\000"
 1742      4E544D41 
 1742      585F4328 
 1742      63292063 
 1742      20232320 
 1743              	.LASF186:
 1744 01b1 5F5F4445 		.ascii	"__DEC32_MIN__ 1E-95DF\000"
 1744      4333325F 
 1744      4D494E5F 
 1744      5F203145 
 1744      2D393544 
 1745              	.LASF65:
 1746 01c7 5F5F5549 		.ascii	"__UINT64_TYPE__ long long unsigned int\000"
 1746      4E543634 
 1746      5F545950 
 1746      455F5F20 
 1746      6C6F6E67 
 1747              	.LASF241:
 1748 01ee 5F5F554C 		.ascii	"__ULLFRACT_MIN__ 0.0ULLR\000"
 1748      4C465241 
 1748      43545F4D 
 1748      494E5F5F 
ARM GAS  /var/folders/wv/bpgj319905s5rl92drfwf9k40000gn/T//ccs5NhWZ.s 			page 35


 1748      20302E30 
 1749              	.LASF283:
 1750 0207 5F5F554C 		.ascii	"__ULLACCUM_EPSILON__ 0x1P-32ULLK\000"
 1750      4C414343 
 1750      554D5F45 
 1750      5053494C 
 1750      4F4E5F5F 
 1751              	.LASF334:
 1752 0228 5F5F4743 		.ascii	"__GCC_ATOMIC_TEST_AND_SET_TRUEVAL 1\000"
 1752      435F4154 
 1752      4F4D4943 
 1752      5F544553 
 1752      545F414E 
 1753              	.LASF354:
 1754 024c 5F5F5553 		.ascii	"__USES_INITFINI__ 1\000"
 1754      45535F49 
 1754      4E495446 
 1754      494E495F 
 1754      5F203100 
 1755              	.LASF329:
 1756 0260 5F5F4743 		.ascii	"__GCC_ATOMIC_WCHAR_T_LOCK_FREE 1\000"
 1756      435F4154 
 1756      4F4D4943 
 1756      5F574348 
 1756      41525F54 
 1757              	.LASF347:
 1758 0281 5F5F5646 		.ascii	"__VFP_FP__ 1\000"
 1758      505F4650 
 1758      5F5F2031 
 1758      00
 1759              	.LASF339:
 1760 028e 5F5F5349 		.ascii	"__SIZEOF_WINT_T__ 4\000"
 1760      5A454F46 
 1760      5F57494E 
 1760      545F545F 
 1760      5F203400 
 1761              	.LASF248:
 1762 02a2 5F5F5341 		.ascii	"__SACCUM_EPSILON__ 0x1P-7HK\000"
 1762      4343554D 
 1762      5F455053 
 1762      494C4F4E 
 1762      5F5F2030 
 1763              	.LASF345:
 1764 02be 5F5F5448 		.ascii	"__THUMBEL__ 1\000"
 1764      554D4245 
 1764      4C5F5F20 
 1764      3100
 1765              	.LASF348:
 1766 02cc 5F5F5448 		.ascii	"__THUMB_INTERWORK__ 1\000"
 1766      554D425F 
 1766      494E5445 
 1766      52574F52 
 1766      4B5F5F20 
 1767              	.LASF265:
 1768 02e2 5F5F4C41 		.ascii	"__LACCUM_IBIT__ 32\000"
 1768      4343554D 
 1768      5F494249 
ARM GAS  /var/folders/wv/bpgj319905s5rl92drfwf9k40000gn/T//ccs5NhWZ.s 			page 36


 1768      545F5F20 
 1768      333200
 1769              	.LASF56:
 1770 02f5 5F5F4348 		.ascii	"__CHAR32_TYPE__ long unsigned int\000"
 1770      41523332 
 1770      5F545950 
 1770      455F5F20 
 1770      6C6F6E67 
 1771              	.LASF19:
 1772 0317 5F5F474E 		.ascii	"__GNUC__ 4\000"
 1772      55435F5F 
 1772      203400
 1773              	.LASF5:
 1774 0322 5F5F696E 		.ascii	"__init_array_start\000"
 1774      69745F61 
 1774      72726179 
 1774      5F737461 
 1774      727400
 1775              	.LASF263:
 1776 0335 5F5F5541 		.ascii	"__UACCUM_EPSILON__ 0x1P-16UK\000"
 1776      4343554D 
 1776      5F455053 
 1776      494C4F4E 
 1776      5F5F2030 
 1777              	.LASF208:
 1778 0352 5F5F5346 		.ascii	"__SFRACT_EPSILON__ 0x1P-7HR\000"
 1778      52414354 
 1778      5F455053 
 1778      494C4F4E 
 1778      5F5F2030 
 1779              	.LASF167:
 1780 036e 5F5F4442 		.ascii	"__DBL_HAS_INFINITY__ 1\000"
 1780      4C5F4841 
 1780      535F494E 
 1780      46494E49 
 1780      54595F5F 
 1781              	.LASF260:
 1782 0385 5F5F5541 		.ascii	"__UACCUM_IBIT__ 16\000"
 1782      4343554D 
 1782      5F494249 
 1782      545F5F20 
 1782      313600
 1783              	.LASF171:
 1784 0398 5F5F4C44 		.ascii	"__LDBL_MIN_EXP__ (-1021)\000"
 1784      424C5F4D 
 1784      494E5F45 
 1784      58505F5F 
 1784      20282D31 
 1785              	.LASF254:
 1786 03b1 5F5F4143 		.ascii	"__ACCUM_FBIT__ 15\000"
 1786      43554D5F 
 1786      46424954 
 1786      5F5F2031 
 1786      3500
 1787              	.LASF272:
 1788 03c3 5F5F554C 		.ascii	"__ULACCUM_MAX__ 0XFFFFFFFFFFFFFFFFP-32ULK\000"
 1788      41434355 
ARM GAS  /var/folders/wv/bpgj319905s5rl92drfwf9k40000gn/T//ccs5NhWZ.s 			page 37


 1788      4D5F4D41 
 1788      585F5F20 
 1788      30584646 
 1789              	.LASF317:
 1790 03ed 5F5F5544 		.ascii	"__UDA_IBIT__ 32\000"
 1790      415F4942 
 1790      49545F5F 
 1790      20333200 
 1791              	.LASF1:
 1792 03fd 5F5F6461 		.ascii	"__data_start\000"
 1792      74615F73 
 1792      74617274 
 1792      00
 1793              	.LASF316:
 1794 040a 5F5F5544 		.ascii	"__UDA_FBIT__ 32\000"
 1794      415F4642 
 1794      49545F5F 
 1794      20333200 
 1795              	.LASF18:
 1796 041a 5F5F5354 		.ascii	"__STDC_HOSTED__ 1\000"
 1796      44435F48 
 1796      4F535445 
 1796      445F5F20 
 1796      3100
 1797              	.LASF95:
 1798 042c 5F5F5749 		.ascii	"__WINT_MIN__ 0U\000"
 1798      4E545F4D 
 1798      494E5F5F 
 1798      20305500 
 1799              	.LASF175:
 1800 043c 5F5F4445 		.ascii	"__DECIMAL_DIG__ 17\000"
 1800      43494D41 
 1800      4C5F4449 
 1800      475F5F20 
 1800      313700
 1801              	.LASF209:
 1802 044f 5F5F5553 		.ascii	"__USFRACT_FBIT__ 8\000"
 1802      46524143 
 1802      545F4642 
 1802      49545F5F 
 1802      203800
 1803              	.LASF134:
 1804 0462 5F5F5549 		.ascii	"__UINT_FAST32_MAX__ 4294967295U\000"
 1804      4E545F46 
 1804      41535433 
 1804      325F4D41 
 1804      585F5F20 
 1805              	.LASF176:
 1806 0482 5F5F4C44 		.ascii	"__LDBL_MAX__ 1.7976931348623157e+308L\000"
 1806      424C5F4D 
 1806      41585F5F 
 1806      20312E37 
 1806      39373639 
 1807              	.LASF205:
 1808 04a8 5F5F5346 		.ascii	"__SFRACT_IBIT__ 0\000"
 1808      52414354 
 1808      5F494249 
ARM GAS  /var/folders/wv/bpgj319905s5rl92drfwf9k40000gn/T//ccs5NhWZ.s 			page 38


 1808      545F5F20 
 1808      3000
 1809              	.LASF49:
 1810 04ba 5F5F5349 		.ascii	"__SIZE_TYPE__ unsigned int\000"
 1810      5A455F54 
 1810      5950455F 
 1810      5F20756E 
 1810      7369676E 
 1811              	.LASF196:
 1812 04d5 5F5F4445 		.ascii	"__DEC64_SUBNORMAL_MIN__ 0.000000000000001E-383DD\000"
 1812      4336345F 
 1812      5355424E 
 1812      4F524D41 
 1812      4C5F4D49 
 1813              	.LASF149:
 1814 0506 5F5F464C 		.ascii	"__FLT_MIN__ 1.1754943508222875e-38F\000"
 1814      545F4D49 
 1814      4E5F5F20 
 1814      312E3137 
 1814      35343934 
 1815              	.LASF6:
 1816 052a 5F5F696E 		.ascii	"__init_array_end\000"
 1816      69745F61 
 1816      72726179 
 1816      5F656E64 
 1816      00
 1817              	.LASF155:
 1818 053b 5F5F4442 		.ascii	"__DBL_MANT_DIG__ 53\000"
 1818      4C5F4D41 
 1818      4E545F44 
 1818      49475F5F 
 1818      20353300 
 1819              	.LASF225:
 1820 054f 5F5F4C46 		.ascii	"__LFRACT_IBIT__ 0\000"
 1820      52414354 
 1820      5F494249 
 1820      545F5F20 
 1820      3000
 1821              	.LASF73:
 1822 0561 5F5F5549 		.ascii	"__UINT_LEAST64_TYPE__ long long unsigned int\000"
 1822      4E545F4C 
 1822      45415354 
 1822      36345F54 
 1822      5950455F 
 1823              	.LASF231:
 1824 058e 5F5F554C 		.ascii	"__ULFRACT_MIN__ 0.0ULR\000"
 1824      46524143 
 1824      545F4D49 
 1824      4E5F5F20 
 1824      302E3055 
 1825              	.LASF82:
 1826 05a5 5F5F494E 		.ascii	"__INTPTR_TYPE__ int\000"
 1826      54505452 
 1826      5F545950 
 1826      455F5F20 
 1826      696E7400 
 1827              	.LASF177:
ARM GAS  /var/folders/wv/bpgj319905s5rl92drfwf9k40000gn/T//ccs5NhWZ.s 			page 39


 1828 05b9 5F5F4C44 		.ascii	"__LDBL_MIN__ 2.2250738585072014e-308L\000"
 1828      424C5F4D 
 1828      494E5F5F 
 1828      20322E32 
 1828      32353037 
 1829              	.LASF240:
 1830 05df 5F5F554C 		.ascii	"__ULLFRACT_IBIT__ 0\000"
 1830      4C465241 
 1830      43545F49 
 1830      4249545F 
 1830      5F203000 
 1831              	.LASF62:
 1832 05f3 5F5F5549 		.ascii	"__UINT8_TYPE__ unsigned char\000"
 1832      4E54385F 
 1832      54595045 
 1832      5F5F2075 
 1832      6E736967 
 1833              	.LASF185:
 1834 0610 5F5F4445 		.ascii	"__DEC32_MAX_EXP__ 97\000"
 1834      4333325F 
 1834      4D41585F 
 1834      4558505F 
 1834      5F203937 
 1835              	.LASF173:
 1836 0625 5F5F4C44 		.ascii	"__LDBL_MAX_EXP__ 1024\000"
 1836      424C5F4D 
 1836      41585F45 
 1836      58505F5F 
 1836      20313032 
 1837              	.LASF57:
 1838 063b 5F5F5349 		.ascii	"__SIG_ATOMIC_TYPE__ int\000"
 1838      475F4154 
 1838      4F4D4943 
 1838      5F545950 
 1838      455F5F20 
 1839              	.LASF192:
 1840 0653 5F5F4445 		.ascii	"__DEC64_MAX_EXP__ 385\000"
 1840      4336345F 
 1840      4D41585F 
 1840      4558505F 
 1840      5F203338 
 1841              	.LASF38:
 1842 0669 5F5F5349 		.ascii	"__SIZEOF_LONG_DOUBLE__ 8\000"
 1842      5A454F46 
 1842      5F4C4F4E 
 1842      475F444F 
 1842      55424C45 
 1843              	.LASF164:
 1844 0682 5F5F4442 		.ascii	"__DBL_EPSILON__ double(2.2204460492503131e-16L)\000"
 1844      4C5F4550 
 1844      53494C4F 
 1844      4E5F5F20 
 1844      646F7562 
 1845              	.LASF237:
 1846 06b2 5F5F4C4C 		.ascii	"__LLFRACT_MAX__ 0X7FFFFFFFFFFFFFFFP-63LLR\000"
 1846      46524143 
 1846      545F4D41 
ARM GAS  /var/folders/wv/bpgj319905s5rl92drfwf9k40000gn/T//ccs5NhWZ.s 			page 40


 1846      585F5F20 
 1846      30583746 
 1847              	.LASF33:
 1848 06dc 5F5F5349 		.ascii	"__SIZEOF_LONG__ 4\000"
 1848      5A454F46 
 1848      5F4C4F4E 
 1848      475F5F20 
 1848      3400
 1849              	.LASF187:
 1850 06ee 5F5F4445 		.ascii	"__DEC32_MAX__ 9.999999E96DF\000"
 1850      4333325F 
 1850      4D41585F 
 1850      5F20392E 
 1850      39393939 
 1851              	.LASF0:
 1852 070a 5F5F6461 		.ascii	"__data_init_start\000"
 1852      74615F69 
 1852      6E69745F 
 1852      73746172 
 1852      7400
 1853              	.LASF311:
 1854 071c 5F5F5441 		.ascii	"__TA_IBIT__ 64\000"
 1854      5F494249 
 1854      545F5F20 
 1854      363400
 1855              	.LASF181:
 1856 072b 5F5F4C44 		.ascii	"__LDBL_HAS_INFINITY__ 1\000"
 1856      424C5F48 
 1856      41535F49 
 1856      4E46494E 
 1856      4954595F 
 1857              	.LASF340:
 1858 0743 5F5F5349 		.ascii	"__SIZEOF_PTRDIFF_T__ 4\000"
 1858      5A454F46 
 1858      5F505452 
 1858      44494646 
 1858      5F545F5F 
 1859              	.LASF244:
 1860 075a 5F5F5341 		.ascii	"__SACCUM_FBIT__ 7\000"
 1860      4343554D 
 1860      5F464249 
 1860      545F5F20 
 1860      3700
 1861              	.LASF58:
 1862 076c 5F5F494E 		.ascii	"__INT8_TYPE__ signed char\000"
 1862      54385F54 
 1862      5950455F 
 1862      5F207369 
 1862      676E6564 
 1863              	.LASF45:
 1864 0786 5F5F4259 		.ascii	"__BYTE_ORDER__ __ORDER_LITTLE_ENDIAN__\000"
 1864      54455F4F 
 1864      52444552 
 1864      5F5F205F 
 1864      5F4F5244 
 1865              	.LASF227:
 1866 07ad 5F5F4C46 		.ascii	"__LFRACT_MAX__ 0X7FFFFFFFP-31LR\000"
ARM GAS  /var/folders/wv/bpgj319905s5rl92drfwf9k40000gn/T//ccs5NhWZ.s 			page 41


 1866      52414354 
 1866      5F4D4158 
 1866      5F5F2030 
 1866      58374646 
 1867              	.LASF337:
 1868 07cd 5F5F5052 		.ascii	"__PRAGMA_REDEFINE_EXTNAME 1\000"
 1868      41474D41 
 1868      5F524544 
 1868      4546494E 
 1868      455F4558 
 1869              	.LASF46:
 1870 07e9 5F5F464C 		.ascii	"__FLOAT_WORD_ORDER__ __ORDER_LITTLE_ENDIAN__\000"
 1870      4F41545F 
 1870      574F5244 
 1870      5F4F5244 
 1870      45525F5F 
 1871              	.LASF268:
 1872 0816 5F5F4C41 		.ascii	"__LACCUM_EPSILON__ 0x1P-31LK\000"
 1872      4343554D 
 1872      5F455053 
 1872      494C4F4E 
 1872      5F5F2030 
 1873              	.LASF60:
 1874 0833 5F5F494E 		.ascii	"__INT32_TYPE__ long int\000"
 1874      5433325F 
 1874      54595045 
 1874      5F5F206C 
 1874      6F6E6720 
 1875              	.LASF106:
 1876 084b 5F5F494E 		.ascii	"__INT32_MAX__ 2147483647L\000"
 1876      5433325F 
 1876      4D41585F 
 1876      5F203231 
 1876      34373438 
 1877              	.LASF75:
 1878 0865 5F5F494E 		.ascii	"__INT_FAST16_TYPE__ int\000"
 1878      545F4641 
 1878      53543136 
 1878      5F545950 
 1878      455F5F20 
 1879              	.LASF7:
 1880 087d 5F5F7374 		.ascii	"__stack_end\000"
 1880      61636B5F 
 1880      656E6400 
 1881              	.LASF255:
 1882 0889 5F5F4143 		.ascii	"__ACCUM_IBIT__ 16\000"
 1882      43554D5F 
 1882      49424954 
 1882      5F5F2031 
 1882      3600
 1883              	.LASF226:
 1884 089b 5F5F4C46 		.ascii	"__LFRACT_MIN__ (-0.5LR-0.5LR)\000"
 1884      52414354 
 1884      5F4D494E 
 1884      5F5F2028 
 1884      2D302E35 
 1885              	.LASF74:
ARM GAS  /var/folders/wv/bpgj319905s5rl92drfwf9k40000gn/T//ccs5NhWZ.s 			page 42


 1886 08b9 5F5F494E 		.ascii	"__INT_FAST8_TYPE__ int\000"
 1886      545F4641 
 1886      5354385F 
 1886      54595045 
 1886      5F5F2069 
 1887              	.LASF303:
 1888 08d0 5F5F5554 		.ascii	"__UTQ_IBIT__ 0\000"
 1888      515F4942 
 1888      49545F5F 
 1888      203000
 1889              	.LASF262:
 1890 08df 5F5F5541 		.ascii	"__UACCUM_MAX__ 0XFFFFFFFFP-16UK\000"
 1890      4343554D 
 1890      5F4D4158 
 1890      5F5F2030 
 1890      58464646 
 1891              	.LASF59:
 1892 08ff 5F5F494E 		.ascii	"__INT16_TYPE__ short int\000"
 1892      5431365F 
 1892      54595045 
 1892      5F5F2073 
 1892      686F7274 
 1893              	.LASF182:
 1894 0918 5F5F4C44 		.ascii	"__LDBL_HAS_QUIET_NAN__ 1\000"
 1894      424C5F48 
 1894      41535F51 
 1894      55494554 
 1894      5F4E414E 
 1895              	.LASF278:
 1896 0931 5F5F4C4C 		.ascii	"__LLACCUM_EPSILON__ 0x1P-31LLK\000"
 1896      41434355 
 1896      4D5F4550 
 1896      53494C4F 
 1896      4E5F5F20 
 1897              	.LASF37:
 1898 0950 5F5F5349 		.ascii	"__SIZEOF_DOUBLE__ 8\000"
 1898      5A454F46 
 1898      5F444F55 
 1898      424C455F 
 1898      5F203800 
 1899              	.LASF252:
 1900 0964 5F5F5553 		.ascii	"__USACCUM_MAX__ 0XFFFFP-8UHK\000"
 1900      41434355 
 1900      4D5F4D41 
 1900      585F5F20 
 1900      30584646 
 1901              	.LASF135:
 1902 0981 5F5F5549 		.ascii	"__UINT_FAST64_MAX__ 18446744073709551615ULL\000"
 1902      4E545F46 
 1902      41535436 
 1902      345F4D41 
 1902      585F5F20 
 1903              	.LASF189:
 1904 09ad 5F5F4445 		.ascii	"__DEC32_SUBNORMAL_MIN__ 0.000001E-95DF\000"
 1904      4333325F 
 1904      5355424E 
 1904      4F524D41 
ARM GAS  /var/folders/wv/bpgj319905s5rl92drfwf9k40000gn/T//ccs5NhWZ.s 			page 43


 1904      4C5F4D49 
 1905              	.LASF293:
 1906 09d4 5F5F5451 		.ascii	"__TQ_IBIT__ 0\000"
 1906      5F494249 
 1906      545F5F20 
 1906      3000
 1907              	.LASF24:
 1908 09e2 5F5F4154 		.ascii	"__ATOMIC_SEQ_CST 5\000"
 1908      4F4D4943 
 1908      5F534551 
 1908      5F435354 
 1908      203500
 1909              	.LASF123:
 1910 09f5 5F5F5549 		.ascii	"__UINT16_C(c) c\000"
 1910      4E543136 
 1910      5F432863 
 1910      29206300 
 1911              	.LASF336:
 1912 0a05 5F5F4743 		.ascii	"__GCC_HAVE_DWARF2_CFI_ASM 1\000"
 1912      435F4841 
 1912      56455F44 
 1912      57415246 
 1912      325F4346 
 1913              	.LASF207:
 1914 0a21 5F5F5346 		.ascii	"__SFRACT_MAX__ 0X7FP-7HR\000"
 1914      52414354 
 1914      5F4D4158 
 1914      5F5F2030 
 1914      58374650 
 1915              	.LASF117:
 1916 0a3a 5F5F494E 		.ascii	"__INT32_C(c) c ## L\000"
 1916      5433325F 
 1916      43286329 
 1916      20632023 
 1916      23204C00 
 1917              	.LASF285:
 1918 0a4e 5F5F5151 		.ascii	"__QQ_IBIT__ 0\000"
 1918      5F494249 
 1918      545F5F20 
 1918      3000
 1919              	.LASF328:
 1920 0a5c 5F5F4743 		.ascii	"__GCC_ATOMIC_CHAR32_T_LOCK_FREE 1\000"
 1920      435F4154 
 1920      4F4D4943 
 1920      5F434841 
 1920      5233325F 
 1921              	.LASF292:
 1922 0a7e 5F5F5451 		.ascii	"__TQ_FBIT__ 127\000"
 1922      5F464249 
 1922      545F5F20 
 1922      31323700 
 1923              	.LASF253:
 1924 0a8e 5F5F5553 		.ascii	"__USACCUM_EPSILON__ 0x1P-8UHK\000"
 1924      41434355 
 1924      4D5F4550 
 1924      53494C4F 
 1924      4E5F5F20 
ARM GAS  /var/folders/wv/bpgj319905s5rl92drfwf9k40000gn/T//ccs5NhWZ.s 			page 44


 1925              	.LASF54:
 1926 0aac 5F5F5549 		.ascii	"__UINTMAX_TYPE__ long long unsigned int\000"
 1926      4E544D41 
 1926      585F5459 
 1926      50455F5F 
 1926      206C6F6E 
 1927              	.LASF320:
 1928 0ad4 5F5F5245 		.ascii	"__REGISTER_PREFIX__ \000"
 1928      47495354 
 1928      45525F50 
 1928      52454649 
 1928      585F5F20 
 1929              	.LASF228:
 1930 0ae9 5F5F4C46 		.ascii	"__LFRACT_EPSILON__ 0x1P-31LR\000"
 1930      52414354 
 1930      5F455053 
 1930      494C4F4E 
 1930      5F5F2030 
 1931              	.LASF238:
 1932 0b06 5F5F4C4C 		.ascii	"__LLFRACT_EPSILON__ 0x1P-63LLR\000"
 1932      46524143 
 1932      545F4550 
 1932      53494C4F 
 1932      4E5F5F20 
 1933              	.LASF34:
 1934 0b25 5F5F5349 		.ascii	"__SIZEOF_LONG_LONG__ 8\000"
 1934      5A454F46 
 1934      5F4C4F4E 
 1934      475F4C4F 
 1934      4E475F5F 
 1935              	.LASF142:
 1936 0b3c 5F5F464C 		.ascii	"__FLT_DIG__ 6\000"
 1936      545F4449 
 1936      475F5F20 
 1936      3600
 1937              	.LASF233:
 1938 0b4a 5F5F554C 		.ascii	"__ULFRACT_EPSILON__ 0x1P-32ULR\000"
 1938      46524143 
 1938      545F4550 
 1938      53494C4F 
 1938      4E5F5F20 
 1939              	.LASF67:
 1940 0b69 5F5F494E 		.ascii	"__INT_LEAST16_TYPE__ short int\000"
 1940      545F4C45 
 1940      41535431 
 1940      365F5459 
 1940      50455F5F 
 1941              	.LASF31:
 1942 0b88 5F5F4649 		.ascii	"__FINITE_MATH_ONLY__ 0\000"
 1942      4E495445 
 1942      5F4D4154 
 1942      485F4F4E 
 1942      4C595F5F 
 1943              	.LASF146:
 1944 0b9f 5F5F464C 		.ascii	"__FLT_MAX_10_EXP__ 38\000"
 1944      545F4D41 
 1944      585F3130 
ARM GAS  /var/folders/wv/bpgj319905s5rl92drfwf9k40000gn/T//ccs5NhWZ.s 			page 45


 1944      5F455850 
 1944      5F5F2033 
 1945              	.LASF114:
 1946 0bb5 5F5F494E 		.ascii	"__INT_LEAST16_MAX__ 32767\000"
 1946      545F4C45 
 1946      41535431 
 1946      365F4D41 
 1946      585F5F20 
 1947              	.LASF234:
 1948 0bcf 5F5F4C4C 		.ascii	"__LLFRACT_FBIT__ 63\000"
 1948      46524143 
 1948      545F4642 
 1948      49545F5F 
 1948      20363300 
 1949              	.LASF89:
 1950 0be3 5F5F494E 		.ascii	"__INT_MAX__ 2147483647\000"
 1950      545F4D41 
 1950      585F5F20 
 1950      32313437 
 1950      34383336 
 1951              	.LASF276:
 1952 0bfa 5F5F4C4C 		.ascii	"__LLACCUM_MIN__ (-0X1P31LLK-0X1P31LLK)\000"
 1952      41434355 
 1952      4D5F4D49 
 1952      4E5F5F20 
 1952      282D3058 
 1953              	.LASF113:
 1954 0c21 5F5F494E 		.ascii	"__INT8_C(c) c\000"
 1954      54385F43 
 1954      28632920 
 1954      6300
 1955              	.LASF230:
 1956 0c2f 5F5F554C 		.ascii	"__ULFRACT_IBIT__ 0\000"
 1956      46524143 
 1956      545F4942 
 1956      49545F5F 
 1956      203000
 1957              	.LASF297:
 1958 0c42 5F5F5548 		.ascii	"__UHQ_IBIT__ 0\000"
 1958      515F4942 
 1958      49545F5F 
 1958      203000
 1959              	.LASF139:
 1960 0c51 5F5F4445 		.ascii	"__DEC_EVAL_METHOD__ 2\000"
 1960      435F4556 
 1960      414C5F4D 
 1960      4554484F 
 1960      445F5F20 
 1961              	.LASF20:
 1962 0c67 5F5F474E 		.ascii	"__GNUC_MINOR__ 7\000"
 1962      55435F4D 
 1962      494E4F52 
 1962      5F5F2037 
 1962      00
 1963              	.LASF325:
 1964 0c78 5F5F4743 		.ascii	"__GCC_ATOMIC_BOOL_LOCK_FREE 1\000"
 1964      435F4154 
ARM GAS  /var/folders/wv/bpgj319905s5rl92drfwf9k40000gn/T//ccs5NhWZ.s 			page 46


 1964      4F4D4943 
 1964      5F424F4F 
 1964      4C5F4C4F 
 1965              	.LASF313:
 1966 0c96 5F5F5548 		.ascii	"__UHA_IBIT__ 8\000"
 1966      415F4942 
 1966      49545F5F 
 1966      203800
 1967              	.LASF4:
 1968 0ca5 5F5F6273 		.ascii	"__bss_end\000"
 1968      735F656E 
 1968      6400
 1969              	.LASF13:
 1970 0caf 5F5F7374 		.ascii	"__startup\000"
 1970      61727475 
 1970      7000
 1971              	.LASF2:
 1972 0cb9 5F5F6461 		.ascii	"__data_end\000"
 1972      74615F65 
 1972      6E6400
 1973              	.LASF111:
 1974 0cc4 5F5F5549 		.ascii	"__UINT64_MAX__ 18446744073709551615ULL\000"
 1974      4E543634 
 1974      5F4D4158 
 1974      5F5F2031 
 1974      38343436 
 1975              	.LASF154:
 1976 0ceb 5F5F464C 		.ascii	"__FLT_HAS_QUIET_NAN__ 1\000"
 1976      545F4841 
 1976      535F5155 
 1976      4945545F 
 1976      4E414E5F 
 1977              	.LASF219:
 1978 0d03 5F5F5546 		.ascii	"__UFRACT_FBIT__ 16\000"
 1978      52414354 
 1978      5F464249 
 1978      545F5F20 
 1978      313600
 1979              	.LASF143:
 1980 0d16 5F5F464C 		.ascii	"__FLT_MIN_EXP__ (-125)\000"
 1980      545F4D49 
 1980      4E5F4558 
 1980      505F5F20 
 1980      282D3132 
 1981              	.LASF112:
 1982 0d2d 5F5F494E 		.ascii	"__INT_LEAST8_MAX__ 127\000"
 1982      545F4C45 
 1982      41535438 
 1982      5F4D4158 
 1982      5F5F2031 
 1983              	.LASF222:
 1984 0d44 5F5F5546 		.ascii	"__UFRACT_MAX__ 0XFFFFP-16UR\000"
 1984      52414354 
 1984      5F4D4158 
 1984      5F5F2030 
 1984      58464646 
 1985              	.LASF212:
ARM GAS  /var/folders/wv/bpgj319905s5rl92drfwf9k40000gn/T//ccs5NhWZ.s 			page 47


 1986 0d60 5F5F5553 		.ascii	"__USFRACT_MAX__ 0XFFP-8UHR\000"
 1986      46524143 
 1986      545F4D41 
 1986      585F5F20 
 1986      30584646 
 1987              	.LASF131:
 1988 0d7b 5F5F494E 		.ascii	"__INT_FAST64_MAX__ 9223372036854775807LL\000"
 1988      545F4641 
 1988      53543634 
 1988      5F4D4158 
 1988      5F5F2039 
 1989              	.LASF43:
 1990 0da4 5F5F4F52 		.ascii	"__ORDER_BIG_ENDIAN__ 4321\000"
 1990      4445525F 
 1990      4249475F 
 1990      454E4449 
 1990      414E5F5F 
 1991              	.LASF55:
 1992 0dbe 5F5F4348 		.ascii	"__CHAR16_TYPE__ short unsigned int\000"
 1992      41523136 
 1992      5F545950 
 1992      455F5F20 
 1992      73686F72 
 1993              	.LASF211:
 1994 0de1 5F5F5553 		.ascii	"__USFRACT_MIN__ 0.0UHR\000"
 1994      46524143 
 1994      545F4D49 
 1994      4E5F5F20 
 1994      302E3055 
 1995              	.LASF298:
 1996 0df8 5F5F5553 		.ascii	"__USQ_FBIT__ 32\000"
 1996      515F4642 
 1996      49545F5F 
 1996      20333200 
 1997              	.LASF53:
 1998 0e08 5F5F494E 		.ascii	"__INTMAX_TYPE__ long long int\000"
 1998      544D4158 
 1998      5F545950 
 1998      455F5F20 
 1998      6C6F6E67 
 1999              	.LASF35:
 2000 0e26 5F5F5349 		.ascii	"__SIZEOF_SHORT__ 2\000"
 2000      5A454F46 
 2000      5F53484F 
 2000      52545F5F 
 2000      203200
 2001              	.LASF288:
 2002 0e39 5F5F5351 		.ascii	"__SQ_FBIT__ 31\000"
 2002      5F464249 
 2002      545F5F20 
 2002      333100
 2003              	.LASF308:
 2004 0e48 5F5F4441 		.ascii	"__DA_FBIT__ 31\000"
 2004      5F464249 
 2004      545F5F20 
 2004      333100
 2005              	.LASF9:
ARM GAS  /var/folders/wv/bpgj319905s5rl92drfwf9k40000gn/T//ccs5NhWZ.s 			page 48


 2006 0e57 5F5F7665 		.ascii	"__vectors\000"
 2006      63746F72 
 2006      7300
 2007              	.LASF115:
 2008 0e61 5F5F494E 		.ascii	"__INT16_C(c) c\000"
 2008      5431365F 
 2008      43286329 
 2008      206300
 2009              	.LASF344:
 2010 0e70 5F5F4152 		.ascii	"__ARMEL__ 1\000"
 2010      4D454C5F 
 2010      5F203100 
 2011              	.LASF77:
 2012 0e7c 5F5F494E 		.ascii	"__INT_FAST64_TYPE__ long long int\000"
 2012      545F4641 
 2012      53543634 
 2012      5F545950 
 2012      455F5F20 
 2013              	.LASF145:
 2014 0e9e 5F5F464C 		.ascii	"__FLT_MAX_EXP__ 128\000"
 2014      545F4D41 
 2014      585F4558 
 2014      505F5F20 
 2014      31323800 
 2015              	.LASF315:
 2016 0eb2 5F5F5553 		.ascii	"__USA_IBIT__ 16\000"
 2016      415F4942 
 2016      49545F5F 
 2016      20313600 
 2017              	.LASF166:
 2018 0ec2 5F5F4442 		.ascii	"__DBL_HAS_DENORM__ 1\000"
 2018      4C5F4841 
 2018      535F4445 
 2018      4E4F524D 
 2018      5F5F2031 
 2019              	.LASF141:
 2020 0ed7 5F5F464C 		.ascii	"__FLT_MANT_DIG__ 24\000"
 2020      545F4D41 
 2020      4E545F44 
 2020      49475F5F 
 2020      20323400 
 2021              	.LASF281:
 2022 0eeb 5F5F554C 		.ascii	"__ULLACCUM_MIN__ 0.0ULLK\000"
 2022      4C414343 
 2022      554D5F4D 
 2022      494E5F5F 
 2022      20302E30 
 2023              	.LASF90:
 2024 0f04 5F5F4C4F 		.ascii	"__LONG_MAX__ 2147483647L\000"
 2024      4E475F4D 
 2024      41585F5F 
 2024      20323134 
 2024      37343833 
 2025              	.LASF224:
 2026 0f1d 5F5F4C46 		.ascii	"__LFRACT_FBIT__ 31\000"
 2026      52414354 
 2026      5F464249 
ARM GAS  /var/folders/wv/bpgj319905s5rl92drfwf9k40000gn/T//ccs5NhWZ.s 			page 49


 2026      545F5F20 
 2026      333100
 2027              	.LASF342:
 2028 0f30 5F5F4150 		.ascii	"__APCS_32__ 1\000"
 2028      43535F33 
 2028      325F5F20 
 2028      3100
 2029              	.LASF333:
 2030 0f3e 5F5F4743 		.ascii	"__GCC_ATOMIC_LLONG_LOCK_FREE 1\000"
 2030      435F4154 
 2030      4F4D4943 
 2030      5F4C4C4F 
 2030      4E475F4C 
 2031              	.LASF204:
 2032 0f5d 5F5F5346 		.ascii	"__SFRACT_FBIT__ 7\000"
 2032      52414354 
 2032      5F464249 
 2032      545F5F20 
 2032      3700
 2033              	.LASF229:
 2034 0f6f 5F5F554C 		.ascii	"__ULFRACT_FBIT__ 32\000"
 2034      46524143 
 2034      545F4642 
 2034      49545F5F 
 2034      20333200 
 2035              	.LASF198:
 2036 0f83 5F5F4445 		.ascii	"__DEC128_MIN_EXP__ (-6142)\000"
 2036      43313238 
 2036      5F4D494E 
 2036      5F455850 
 2036      5F5F2028 
 2037              	.LASF26:
 2038 0f9e 5F5F4154 		.ascii	"__ATOMIC_RELEASE 3\000"
 2038      4F4D4943 
 2038      5F52454C 
 2038      45415345 
 2038      203300
 2039              	.LASF350:
 2040 0fb1 5F5F4152 		.ascii	"__ARM_PCS 1\000"
 2040      4D5F5043 
 2040      53203100 
 2041              	.LASF280:
 2042 0fbd 5F5F554C 		.ascii	"__ULLACCUM_IBIT__ 32\000"
 2042      4C414343 
 2042      554D5F49 
 2042      4249545F 
 2042      5F203332 
 2043              	.LASF21:
 2044 0fd2 5F5F474E 		.ascii	"__GNUC_PATCHLEVEL__ 4\000"
 2044      55435F50 
 2044      41544348 
 2044      4C455645 
 2044      4C5F5F20 
 2045              	.LASF161:
 2046 0fe8 5F5F4442 		.ascii	"__DBL_DECIMAL_DIG__ 17\000"
 2046      4C5F4445 
 2046      43494D41 
ARM GAS  /var/folders/wv/bpgj319905s5rl92drfwf9k40000gn/T//ccs5NhWZ.s 			page 50


 2046      4C5F4449 
 2046      475F5F20 
 2047              	.LASF156:
 2048 0fff 5F5F4442 		.ascii	"__DBL_DIG__ 15\000"
 2048      4C5F4449 
 2048      475F5F20 
 2048      313500
 2049              	.LASF124:
 2050 100e 5F5F5549 		.ascii	"__UINT_LEAST32_MAX__ 4294967295UL\000"
 2050      4E545F4C 
 2050      45415354 
 2050      33325F4D 
 2050      41585F5F 
 2051              	.LASF147:
 2052 1030 5F5F464C 		.ascii	"__FLT_DECIMAL_DIG__ 9\000"
 2052      545F4445 
 2052      43494D41 
 2052      4C5F4449 
 2052      475F5F20 
 2053              	.LASF105:
 2054 1046 5F5F494E 		.ascii	"__INT16_MAX__ 32767\000"
 2054      5431365F 
 2054      4D41585F 
 2054      5F203332 
 2054      37363700 
 2055              	.LASF172:
 2056 105a 5F5F4C44 		.ascii	"__LDBL_MIN_10_EXP__ (-307)\000"
 2056      424C5F4D 
 2056      494E5F31 
 2056      305F4558 
 2056      505F5F20 
 2057              	.LASF32:
 2058 1075 5F5F5349 		.ascii	"__SIZEOF_INT__ 4\000"
 2058      5A454F46 
 2058      5F494E54 
 2058      5F5F2034 
 2058      00
 2059              	.LASF61:
 2060 1086 5F5F494E 		.ascii	"__INT64_TYPE__ long long int\000"
 2060      5436345F 
 2060      54595045 
 2060      5F5F206C 
 2060      6F6E6720 
 2061              	.LASF323:
 2062 10a3 5F5F4348 		.ascii	"__CHAR_UNSIGNED__ 1\000"
 2062      41525F55 
 2062      4E534947 
 2062      4E45445F 
 2062      5F203100 
 2063              	.LASF199:
 2064 10b7 5F5F4445 		.ascii	"__DEC128_MAX_EXP__ 6145\000"
 2064      43313238 
 2064      5F4D4158 
 2064      5F455850 
 2064      5F5F2036 
 2065              	.LASF290:
 2066 10cf 5F5F4451 		.ascii	"__DQ_FBIT__ 63\000"
ARM GAS  /var/folders/wv/bpgj319905s5rl92drfwf9k40000gn/T//ccs5NhWZ.s 			page 51


 2066      5F464249 
 2066      545F5F20 
 2066      363300
 2067              	.LASF8:
 2068 10de 73697A65 		.ascii	"sizetype\000"
 2068      74797065 
 2068      00
 2069              	.LASF259:
 2070 10e7 5F5F5541 		.ascii	"__UACCUM_FBIT__ 16\000"
 2070      4343554D 
 2070      5F464249 
 2070      545F5F20 
 2070      313600
 2071              	.LASF163:
 2072 10fa 5F5F4442 		.ascii	"__DBL_MIN__ double(2.2250738585072014e-308L)\000"
 2072      4C5F4D49 
 2072      4E5F5F20 
 2072      646F7562 
 2072      6C652832 
 2073              	.LASF44:
 2074 1127 5F5F4F52 		.ascii	"__ORDER_PDP_ENDIAN__ 3412\000"
 2074      4445525F 
 2074      5044505F 
 2074      454E4449 
 2074      414E5F5F 
 2075              	.LASF27:
 2076 1141 5F5F4154 		.ascii	"__ATOMIC_ACQ_REL 4\000"
 2076      4F4D4943 
 2076      5F414351 
 2076      5F52454C 
 2076      203400
 2077              	.LASF122:
 2078 1154 5F5F5549 		.ascii	"__UINT_LEAST16_MAX__ 65535\000"
 2078      4E545F4C 
 2078      45415354 
 2078      31365F4D 
 2078      41585F5F 
 2079              	.LASF41:
 2080 116f 5F5F4249 		.ascii	"__BIGGEST_ALIGNMENT__ 8\000"
 2080      47474553 
 2080      545F414C 
 2080      49474E4D 
 2080      454E545F 
 2081              	.LASF92:
 2082 1187 5F5F5743 		.ascii	"__WCHAR_MAX__ 4294967295U\000"
 2082      4841525F 
 2082      4D41585F 
 2082      5F203432 
 2082      39343936 
 2083              	.LASF296:
 2084 11a1 5F5F5548 		.ascii	"__UHQ_FBIT__ 16\000"
 2084      515F4642 
 2084      49545F5F 
 2084      20313600 
 2085              	.LASF294:
 2086 11b1 5F5F5551 		.ascii	"__UQQ_FBIT__ 8\000"
 2086      515F4642 
ARM GAS  /var/folders/wv/bpgj319905s5rl92drfwf9k40000gn/T//ccs5NhWZ.s 			page 52


 2086      49545F5F 
 2086      203800
 2087              	.LASF201:
 2088 11c0 5F5F4445 		.ascii	"__DEC128_MAX__ 9.999999999999999999999999999999999E"
 2088      43313238 
 2088      5F4D4158 
 2088      5F5F2039 
 2088      2E393939 
 2089 11f3 36313434 		.ascii	"6144DL\000"
 2089      444C00
 2090              	.LASF129:
 2091 11fa 5F5F494E 		.ascii	"__INT_FAST16_MAX__ 2147483647\000"
 2091      545F4641 
 2091      53543136 
 2091      5F4D4158 
 2091      5F5F2032 
 2092              	.LASF165:
 2093 1218 5F5F4442 		.ascii	"__DBL_DENORM_MIN__ double(4.9406564584124654e-324L)"
 2093      4C5F4445 
 2093      4E4F524D 
 2093      5F4D494E 
 2093      5F5F2064 
 2094 124b 00       		.ascii	"\000"
 2095              	.LASF302:
 2096 124c 5F5F5554 		.ascii	"__UTQ_FBIT__ 128\000"
 2096      515F4642 
 2096      49545F5F 
 2096      20313238 
 2096      00
 2097              	.LASF159:
 2098 125d 5F5F4442 		.ascii	"__DBL_MAX_EXP__ 1024\000"
 2098      4C5F4D41 
 2098      585F4558 
 2098      505F5F20 
 2098      31303234 
 2099              	.LASF16:
 2100 1272 5F5F5354 		.ascii	"__STDC__ 1\000"
 2100      44435F5F 
 2100      203100
 2101              	.LASF353:
 2102 127d 5F5F454C 		.ascii	"__ELF__ 1\000"
 2102      465F5F20 
 2102      3100
 2103              	.LASF138:
 2104 1287 5F5F464C 		.ascii	"__FLT_EVAL_METHOD__ 0\000"
 2104      545F4556 
 2104      414C5F4D 
 2104      4554484F 
 2104      445F5F20 
 2105              	.LASF319:
 2106 129d 5F5F5554 		.ascii	"__UTA_IBIT__ 64\000"
 2106      415F4942 
 2106      49545F5F 
 2106      20363400 
 2107              	.LASF25:
 2108 12ad 5F5F4154 		.ascii	"__ATOMIC_ACQUIRE 2\000"
 2108      4F4D4943 
ARM GAS  /var/folders/wv/bpgj319905s5rl92drfwf9k40000gn/T//ccs5NhWZ.s 			page 53


 2108      5F414351 
 2108      55495245 
 2108      203200
 2109              	.LASF195:
 2110 12c0 5F5F4445 		.ascii	"__DEC64_EPSILON__ 1E-15DD\000"
 2110      4336345F 
 2110      45505349 
 2110      4C4F4E5F 
 2110      5F203145 
 2111              	.LASF331:
 2112 12da 5F5F4743 		.ascii	"__GCC_ATOMIC_INT_LOCK_FREE 1\000"
 2112      435F4154 
 2112      4F4D4943 
 2112      5F494E54 
 2112      5F4C4F43 
 2113              	.LASF249:
 2114 12f7 5F5F5553 		.ascii	"__USACCUM_FBIT__ 8\000"
 2114      41434355 
 2114      4D5F4642 
 2114      49545F5F 
 2114      203800
 2115              	.LASF179:
 2116 130a 5F5F4C44 		.ascii	"__LDBL_DENORM_MIN__ 4.9406564584124654e-324L\000"
 2116      424C5F44 
 2116      454E4F52 
 2116      4D5F4D49 
 2116      4E5F5F20 
 2117              	.LASF338:
 2118 1337 5F5F5349 		.ascii	"__SIZEOF_WCHAR_T__ 4\000"
 2118      5A454F46 
 2118      5F574348 
 2118      41525F54 
 2118      5F5F2034 
 2119              	.LASF326:
 2120 134c 5F5F4743 		.ascii	"__GCC_ATOMIC_CHAR_LOCK_FREE 1\000"
 2120      435F4154 
 2120      4F4D4943 
 2120      5F434841 
 2120      525F4C4F 
 2121              	.LASF184:
 2122 136a 5F5F4445 		.ascii	"__DEC32_MIN_EXP__ (-94)\000"
 2122      4333325F 
 2122      4D494E5F 
 2122      4558505F 
 2122      5F20282D 
 2123              	.LASF80:
 2124 1382 5F5F5549 		.ascii	"__UINT_FAST32_TYPE__ unsigned int\000"
 2124      4E545F46 
 2124      41535433 
 2124      325F5459 
 2124      50455F5F 
 2125              	.LASF170:
 2126 13a4 5F5F4C44 		.ascii	"__LDBL_DIG__ 15\000"
 2126      424C5F44 
 2126      49475F5F 
 2126      20313500 
 2127              	.LASF178:
ARM GAS  /var/folders/wv/bpgj319905s5rl92drfwf9k40000gn/T//ccs5NhWZ.s 			page 54


 2128 13b4 5F5F4C44 		.ascii	"__LDBL_EPSILON__ 2.2204460492503131e-16L\000"
 2128      424C5F45 
 2128      5053494C 
 2128      4F4E5F5F 
 2128      20322E32 
 2129              	.LASF349:
 2130 13dd 5F5F4152 		.ascii	"__ARM_ARCH_6M__ 1\000"
 2130      4D5F4152 
 2130      43485F36 
 2130      4D5F5F20 
 2130      3100
 2131              	.LASF322:
 2132 13ef 5F5F474E 		.ascii	"__GNUC_GNU_INLINE__ 1\000"
 2132      55435F47 
 2132      4E555F49 
 2132      4E4C494E 
 2132      455F5F20 
 2133              	.LASF295:
 2134 1405 5F5F5551 		.ascii	"__UQQ_IBIT__ 0\000"
 2134      515F4942 
 2134      49545F5F 
 2134      203000
 2135              	.LASF284:
 2136 1414 5F5F5151 		.ascii	"__QQ_FBIT__ 7\000"
 2136      5F464249 
 2136      545F5F20 
 2136      3700
 2137              	.LASF305:
 2138 1422 5F5F4841 		.ascii	"__HA_IBIT__ 8\000"
 2138      5F494249 
 2138      545F5F20 
 2138      3800
 2139              	.LASF64:
 2140 1430 5F5F5549 		.ascii	"__UINT32_TYPE__ long unsigned int\000"
 2140      4E543332 
 2140      5F545950 
 2140      455F5F20 
 2140      6C6F6E67 
 2141              	.LASF125:
 2142 1452 5F5F5549 		.ascii	"__UINT32_C(c) c ## UL\000"
 2142      4E543332 
 2142      5F432863 
 2142      29206320 
 2142      23232055 
 2143              	.LASF221:
 2144 1468 5F5F5546 		.ascii	"__UFRACT_MIN__ 0.0UR\000"
 2144      52414354 
 2144      5F4D494E 
 2144      5F5F2030 
 2144      2E305552 
 2145              	.LASF341:
 2146 147d 5F5F6172 		.ascii	"__arm__ 1\000"
 2146      6D5F5F20 
 2146      3100
 2147              	.LASF157:
 2148 1487 5F5F4442 		.ascii	"__DBL_MIN_EXP__ (-1021)\000"
 2148      4C5F4D49 
ARM GAS  /var/folders/wv/bpgj319905s5rl92drfwf9k40000gn/T//ccs5NhWZ.s 			page 55


 2148      4E5F4558 
 2148      505F5F20 
 2148      282D3130 
 2149              	.LASF109:
 2150 149f 5F5F5549 		.ascii	"__UINT16_MAX__ 65535\000"
 2150      4E543136 
 2150      5F4D4158 
 2150      5F5F2036 
 2150      35353335 
 2151              	.LASF197:
 2152 14b4 5F5F4445 		.ascii	"__DEC128_MANT_DIG__ 34\000"
 2152      43313238 
 2152      5F4D414E 
 2152      545F4449 
 2152      475F5F20 
 2153              	.LASF91:
 2154 14cb 5F5F4C4F 		.ascii	"__LONG_LONG_MAX__ 9223372036854775807LL\000"
 2154      4E475F4C 
 2154      4F4E475F 
 2154      4D41585F 
 2154      5F203932 
 2155              	.LASF148:
 2156 14f3 5F5F464C 		.ascii	"__FLT_MAX__ 3.4028234663852886e+38F\000"
 2156      545F4D41 
 2156      585F5F20 
 2156      332E3430 
 2156      32383233 
 2157              	.LASF327:
 2158 1517 5F5F4743 		.ascii	"__GCC_ATOMIC_CHAR16_T_LOCK_FREE 1\000"
 2158      435F4154 
 2158      4F4D4943 
 2158      5F434841 
 2158      5231365F 
 2159              	.LASF12:
 2160 1539 2F557365 		.ascii	"/Users/stevenparker/project/lpc1114/arduino\000"
 2160      72732F73 
 2160      74657665 
 2160      6E706172 
 2160      6B65722F 
 2161              	.LASF97:
 2162 1565 5F5F5349 		.ascii	"__SIZE_MAX__ 4294967295U\000"
 2162      5A455F4D 
 2162      41585F5F 
 2162      20343239 
 2162      34393637 
 2163              	.LASF206:
 2164 157e 5F5F5346 		.ascii	"__SFRACT_MIN__ (-0.5HR-0.5HR)\000"
 2164      52414354 
 2164      5F4D494E 
 2164      5F5F2028 
 2164      2D302E35 
 2165              	.LASF29:
 2166 159c 5F5F4F50 		.ascii	"__OPTIMIZE_SIZE__ 1\000"
 2166      54494D49 
 2166      5A455F53 
 2166      495A455F 
 2166      5F203100 
ARM GAS  /var/folders/wv/bpgj319905s5rl92drfwf9k40000gn/T//ccs5NhWZ.s 			page 56


 2167              	.LASF291:
 2168 15b0 5F5F4451 		.ascii	"__DQ_IBIT__ 0\000"
 2168      5F494249 
 2168      545F5F20 
 2168      3000
 2169              	.LASF99:
 2170 15be 5F5F494E 		.ascii	"__INTMAX_C(c) c ## LL\000"
 2170      544D4158 
 2170      5F432863 
 2170      29206320 
 2170      2323204C 
 2171              	.LASF85:
 2172 15d4 5F5F4445 		.ascii	"__DEPRECATED 1\000"
 2172      50524543 
 2172      41544544 
 2172      203100
 2173              	.LASF72:
 2174 15e3 5F5F5549 		.ascii	"__UINT_LEAST32_TYPE__ long unsigned int\000"
 2174      4E545F4C 
 2174      45415354 
 2174      33325F54 
 2174      5950455F 
 2175              	.LASF119:
 2176 160b 5F5F494E 		.ascii	"__INT64_C(c) c ## LL\000"
 2176      5436345F 
 2176      43286329 
 2176      20632023 
 2176      23204C4C 
 2177              	.LASF289:
 2178 1620 5F5F5351 		.ascii	"__SQ_IBIT__ 0\000"
 2178      5F494249 
 2178      545F5F20 
 2178      3000
 2179              	.LASF66:
 2180 162e 5F5F494E 		.ascii	"__INT_LEAST8_TYPE__ signed char\000"
 2180      545F4C45 
 2180      41535438 
 2180      5F545950 
 2180      455F5F20 
 2181              	.LASF36:
 2182 164e 5F5F5349 		.ascii	"__SIZEOF_FLOAT__ 4\000"
 2182      5A454F46 
 2182      5F464C4F 
 2182      41545F5F 
 2182      203400
 2183              	.LASF96:
 2184 1661 5F5F5054 		.ascii	"__PTRDIFF_MAX__ 2147483647\000"
 2184      52444946 
 2184      465F4D41 
 2184      585F5F20 
 2184      32313437 
 2185              	.LASF160:
 2186 167c 5F5F4442 		.ascii	"__DBL_MAX_10_EXP__ 308\000"
 2186      4C5F4D41 
 2186      585F3130 
 2186      5F455850 
 2186      5F5F2033 
ARM GAS  /var/folders/wv/bpgj319905s5rl92drfwf9k40000gn/T//ccs5NhWZ.s 			page 57


 2187              	.LASF151:
 2188 1693 5F5F464C 		.ascii	"__FLT_DENORM_MIN__ 1.4012984643248171e-45F\000"
 2188      545F4445 
 2188      4E4F524D 
 2188      5F4D494E 
 2188      5F5F2031 
 2189              	.LASF150:
 2190 16be 5F5F464C 		.ascii	"__FLT_EPSILON__ 1.1920928955078125e-7F\000"
 2190      545F4550 
 2190      53494C4F 
 2190      4E5F5F20 
 2190      312E3139 
 2191              	.LASF116:
 2192 16e5 5F5F494E 		.ascii	"__INT_LEAST32_MAX__ 2147483647L\000"
 2192      545F4C45 
 2192      41535433 
 2192      325F4D41 
 2192      585F5F20 
 2193              	.LASF250:
 2194 1705 5F5F5553 		.ascii	"__USACCUM_IBIT__ 8\000"
 2194      41434355 
 2194      4D5F4942 
 2194      49545F5F 
 2194      203800
 2195              	.LASF42:
 2196 1718 5F5F4F52 		.ascii	"__ORDER_LITTLE_ENDIAN__ 1234\000"
 2196      4445525F 
 2196      4C495454 
 2196      4C455F45 
 2196      4E444941 
 2197              	.LASF52:
 2198 1735 5F5F5749 		.ascii	"__WINT_TYPE__ unsigned int\000"
 2198      4E545F54 
 2198      5950455F 
 2198      5F20756E 
 2198      7369676E 
 2199              	.LASF71:
 2200 1750 5F5F5549 		.ascii	"__UINT_LEAST16_TYPE__ short unsigned int\000"
 2200      4E545F4C 
 2200      45415354 
 2200      31365F54 
 2200      5950455F 
 2201              	.LASF69:
 2202 1779 5F5F494E 		.ascii	"__INT_LEAST64_TYPE__ long long int\000"
 2202      545F4C45 
 2202      41535436 
 2202      345F5459 
 2202      50455F5F 
 2203              	.LASF23:
 2204 179c 5F5F4154 		.ascii	"__ATOMIC_RELAXED 0\000"
 2204      4F4D4943 
 2204      5F52454C 
 2204      41584544 
 2204      203000
 2205              	.LASF309:
 2206 17af 5F5F4441 		.ascii	"__DA_IBIT__ 32\000"
 2206      5F494249 
ARM GAS  /var/folders/wv/bpgj319905s5rl92drfwf9k40000gn/T//ccs5NhWZ.s 			page 58


 2206      545F5F20 
 2206      333200
 2207              	.LASF267:
 2208 17be 5F5F4C41 		.ascii	"__LACCUM_MAX__ 0X7FFFFFFFFFFFFFFFP-31LK\000"
 2208      4343554D 
 2208      5F4D4158 
 2208      5F5F2030 
 2208      58374646 
 2209              	.LASF301:
 2210 17e6 5F5F5544 		.ascii	"__UDQ_IBIT__ 0\000"
 2210      515F4942 
 2210      49545F5F 
 2210      203000
 2211              	.LASF200:
 2212 17f5 5F5F4445 		.ascii	"__DEC128_MIN__ 1E-6143DL\000"
 2212      43313238 
 2212      5F4D494E 
 2212      5F5F2031 
 2212      452D3631 
 2213              	.LASF183:
 2214 180e 5F5F4445 		.ascii	"__DEC32_MANT_DIG__ 7\000"
 2214      4333325F 
 2214      4D414E54 
 2214      5F444947 
 2214      5F5F2037 
 2215              	.LASF257:
 2216 1823 5F5F4143 		.ascii	"__ACCUM_MAX__ 0X7FFFFFFFP-15K\000"
 2216      43554D5F 
 2216      4D41585F 
 2216      5F203058 
 2216      37464646 
 2217              	.LASF102:
 2218 1841 5F5F5349 		.ascii	"__SIG_ATOMIC_MAX__ 2147483647\000"
 2218      475F4154 
 2218      4F4D4943 
 2218      5F4D4158 
 2218      5F5F2032 
 2219              	.LASF68:
 2220 185f 5F5F494E 		.ascii	"__INT_LEAST32_TYPE__ long int\000"
 2220      545F4C45 
 2220      41535433 
 2220      325F5459 
 2220      50455F5F 
 2221              	.LASF247:
 2222 187d 5F5F5341 		.ascii	"__SACCUM_MAX__ 0X7FFFP-7HK\000"
 2222      4343554D 
 2222      5F4D4158 
 2222      5F5F2030 
 2222      58374646 
 2223              	.LASF98:
 2224 1898 5F5F494E 		.ascii	"__INTMAX_MAX__ 9223372036854775807LL\000"
 2224      544D4158 
 2224      5F4D4158 
 2224      5F5F2039 
 2224      32323333 
 2225              	.LASF86:
 2226 18bd 5F5F4758 		.ascii	"__GXX_ABI_VERSION 1002\000"
ARM GAS  /var/folders/wv/bpgj319905s5rl92drfwf9k40000gn/T//ccs5NhWZ.s 			page 59


 2226      585F4142 
 2226      495F5645 
 2226      5253494F 
 2226      4E203130 
 2227              	.LASF220:
 2228 18d4 5F5F5546 		.ascii	"__UFRACT_IBIT__ 0\000"
 2228      52414354 
 2228      5F494249 
 2228      545F5F20 
 2228      3000
 2229              	.LASF210:
 2230 18e6 5F5F5553 		.ascii	"__USFRACT_IBIT__ 0\000"
 2230      46524143 
 2230      545F4942 
 2230      49545F5F 
 2230      203000
 2231              	.LASF306:
 2232 18f9 5F5F5341 		.ascii	"__SA_FBIT__ 15\000"
 2232      5F464249 
 2232      545F5F20 
 2232      313500
 2233              	.LASF270:
 2234 1908 5F5F554C 		.ascii	"__ULACCUM_IBIT__ 32\000"
 2234      41434355 
 2234      4D5F4942 
 2234      49545F5F 
 2234      20333200 
 2235              	.LASF214:
 2236 191c 5F5F4652 		.ascii	"__FRACT_FBIT__ 15\000"
 2236      4143545F 
 2236      46424954 
 2236      5F5F2031 
 2236      3500
 2237              	.LASF300:
 2238 192e 5F5F5544 		.ascii	"__UDQ_FBIT__ 64\000"
 2238      515F4642 
 2238      49545F5F 
 2238      20363400 
 2239              	.LASF14:
 2240 193e 5F5F6378 		.ascii	"__cxa_pure_virtual\000"
 2240      615F7075 
 2240      72655F76 
 2240      69727475 
 2240      616C00
 2241              	.LASF218:
 2242 1951 5F5F4652 		.ascii	"__FRACT_EPSILON__ 0x1P-15R\000"
 2242      4143545F 
 2242      45505349 
 2242      4C4F4E5F 
 2242      5F203078 
 2243              	.LASF304:
 2244 196c 5F5F4841 		.ascii	"__HA_FBIT__ 7\000"
 2244      5F464249 
 2244      545F5F20 
 2244      3700
 2245              	.LASF169:
 2246 197a 5F5F4C44 		.ascii	"__LDBL_MANT_DIG__ 53\000"
ARM GAS  /var/folders/wv/bpgj319905s5rl92drfwf9k40000gn/T//ccs5NhWZ.s 			page 60


 2246      424C5F4D 
 2246      414E545F 
 2246      4449475F 
 2246      5F203533 
 2247              	.LASF223:
 2248 198f 5F5F5546 		.ascii	"__UFRACT_EPSILON__ 0x1P-16UR\000"
 2248      52414354 
 2248      5F455053 
 2248      494C4F4E 
 2248      5F5F2030 
 2249              	.LASF83:
 2250 19ac 5F5F5549 		.ascii	"__UINTPTR_TYPE__ unsigned int\000"
 2250      4E545054 
 2250      525F5459 
 2250      50455F5F 
 2250      20756E73 
 2251              	.LASF351:
 2252 19ca 5F5F4152 		.ascii	"__ARM_EABI__ 1\000"
 2252      4D5F4541 
 2252      42495F5F 
 2252      203100
 2253              	.LASF140:
 2254 19d9 5F5F464C 		.ascii	"__FLT_RADIX__ 2\000"
 2254      545F5241 
 2254      4449585F 
 2254      5F203200 
 2255              	.LASF94:
 2256 19e9 5F5F5749 		.ascii	"__WINT_MAX__ 4294967295U\000"
 2256      4E545F4D 
 2256      41585F5F 
 2256      20343239 
 2256      34393637 
 2257              	.LASF246:
 2258 1a02 5F5F5341 		.ascii	"__SACCUM_MIN__ (-0X1P7HK-0X1P7HK)\000"
 2258      4343554D 
 2258      5F4D494E 
 2258      5F5F2028 
 2258      2D305831 
 2259              	.LASF153:
 2260 1a24 5F5F464C 		.ascii	"__FLT_HAS_INFINITY__ 1\000"
 2260      545F4841 
 2260      535F494E 
 2260      46494E49 
 2260      54595F5F 
 2261              	.LASF93:
 2262 1a3b 5F5F5743 		.ascii	"__WCHAR_MIN__ 0U\000"
 2262      4841525F 
 2262      4D494E5F 
 2262      5F203055 
 2262      00
 2263              	.LASF88:
 2264 1a4c 5F5F5348 		.ascii	"__SHRT_MAX__ 32767\000"
 2264      52545F4D 
 2264      41585F5F 
 2264      20333237 
 2264      363700
 2265              	.LASF126:
ARM GAS  /var/folders/wv/bpgj319905s5rl92drfwf9k40000gn/T//ccs5NhWZ.s 			page 61


 2266 1a5f 5F5F5549 		.ascii	"__UINT_LEAST64_MAX__ 18446744073709551615ULL\000"
 2266      4E545F4C 
 2266      45415354 
 2266      36345F4D 
 2266      41585F5F 
 2267              	.LASF174:
 2268 1a8c 5F5F4C44 		.ascii	"__LDBL_MAX_10_EXP__ 308\000"
 2268      424C5F4D 
 2268      41585F31 
 2268      305F4558 
 2268      505F5F20 
 2269              	.LASF3:
 2270 1aa4 5F5F6273 		.ascii	"__bss_start\000"
 2270      735F7374 
 2270      61727400 
 2271              	.LASF17:
 2272 1ab0 5F5F6370 		.ascii	"__cplusplus 199711L\000"
 2272      6C757370 
 2272      6C757320 
 2272      31393937 
 2272      31314C00 
 2273              	.LASF243:
 2274 1ac4 5F5F554C 		.ascii	"__ULLFRACT_EPSILON__ 0x1P-64ULLR\000"
 2274      4C465241 
 2274      43545F45 
 2274      5053494C 
 2274      4F4E5F5F 
 2275              	.LASF22:
 2276 1ae5 5F5F5645 		.ascii	"__VERSION__ \"4.7.4 20130613 (release) [ARM/embedde"
 2276      5253494F 
 2276      4E5F5F20 
 2276      22342E37 
 2276      2E342032 
 2277 1b17 642D345F 		.ascii	"d-4_7-branch revision 200083]\"\000"
 2277      372D6272 
 2277      616E6368 
 2277      20726576 
 2277      6973696F 
 2278              	.LASF130:
 2279 1b36 5F5F494E 		.ascii	"__INT_FAST32_MAX__ 2147483647\000"
 2279      545F4641 
 2279      53543332 
 2279      5F4D4158 
 2279      5F5F2032 
 2280              	.LASF299:
 2281 1b54 5F5F5553 		.ascii	"__USQ_IBIT__ 0\000"
 2281      515F4942 
 2281      49545F5F 
 2281      203000
 2282              	.LASF78:
 2283 1b63 5F5F5549 		.ascii	"__UINT_FAST8_TYPE__ unsigned int\000"
 2283      4E545F46 
 2283      41535438 
 2283      5F545950 
 2283      455F5F20 
 2284              	.LASF50:
 2285 1b84 5F5F5054 		.ascii	"__PTRDIFF_TYPE__ int\000"
ARM GAS  /var/folders/wv/bpgj319905s5rl92drfwf9k40000gn/T//ccs5NhWZ.s 			page 62


 2285      52444946 
 2285      465F5459 
 2285      50455F5F 
 2285      20696E74 
 2286              	.LASF180:
 2287 1b99 5F5F4C44 		.ascii	"__LDBL_HAS_DENORM__ 1\000"
 2287      424C5F48 
 2287      41535F44 
 2287      454E4F52 
 2287      4D5F5F20 
 2288              	.LASF264:
 2289 1baf 5F5F4C41 		.ascii	"__LACCUM_FBIT__ 31\000"
 2289      4343554D 
 2289      5F464249 
 2289      545F5F20 
 2289      333100
 2290              	.LASF51:
 2291 1bc2 5F5F5743 		.ascii	"__WCHAR_TYPE__ unsigned int\000"
 2291      4841525F 
 2291      54595045 
 2291      5F5F2075 
 2291      6E736967 
 2292              	.LASF343:
 2293 1bde 5F5F7468 		.ascii	"__thumb__ 1\000"
 2293      756D625F 
 2293      5F203100 
 2294              	.LASF312:
 2295 1bea 5F5F5548 		.ascii	"__UHA_FBIT__ 8\000"
 2295      415F4642 
 2295      49545F5F 
 2295      203800
 2296              	.LASF28:
 2297 1bf9 5F5F4154 		.ascii	"__ATOMIC_CONSUME 1\000"
 2297      4F4D4943 
 2297      5F434F4E 
 2297      53554D45 
 2297      203100
 2298              	.LASF203:
 2299 1c0c 5F5F4445 		.ascii	"__DEC128_SUBNORMAL_MIN__ 0.000000000000000000000000"
 2299      43313238 
 2299      5F535542 
 2299      4E4F524D 
 2299      414C5F4D 
 2300 1c3f 30303030 		.ascii	"000000001E-6143DL\000"
 2300      30303030 
 2300      31452D36 
 2300      31343344 
 2300      4C00
 2301              	.LASF258:
 2302 1c51 5F5F4143 		.ascii	"__ACCUM_EPSILON__ 0x1P-15K\000"
 2302      43554D5F 
 2302      45505349 
 2302      4C4F4E5F 
 2302      5F203078 
 2303              	.LASF202:
 2304 1c6c 5F5F4445 		.ascii	"__DEC128_EPSILON__ 1E-33DL\000"
 2304      43313238 
ARM GAS  /var/folders/wv/bpgj319905s5rl92drfwf9k40000gn/T//ccs5NhWZ.s 			page 63


 2304      5F455053 
 2304      494C4F4E 
 2304      5F5F2031 
 2305              	.LASF63:
 2306 1c87 5F5F5549 		.ascii	"__UINT16_TYPE__ short unsigned int\000"
 2306      4E543136 
 2306      5F545950 
 2306      455F5F20 
 2306      73686F72 
 2307              	.LASF133:
 2308 1caa 5F5F5549 		.ascii	"__UINT_FAST16_MAX__ 4294967295U\000"
 2308      4E545F46 
 2308      41535431 
 2308      365F4D41 
 2308      585F5F20 
 2309              	.LASF30:
 2310 1cca 5F5F4F50 		.ascii	"__OPTIMIZE__ 1\000"
 2310      54494D49 
 2310      5A455F5F 
 2310      203100
 2311              	.LASF232:
 2312 1cd9 5F5F554C 		.ascii	"__ULFRACT_MAX__ 0XFFFFFFFFP-32ULR\000"
 2312      46524143 
 2312      545F4D41 
 2312      585F5F20 
 2312      30584646 
 2313              	.LASF242:
 2314 1cfb 5F5F554C 		.ascii	"__ULLFRACT_MAX__ 0XFFFFFFFFFFFFFFFFP-64ULLR\000"
 2314      4C465241 
 2314      43545F4D 
 2314      41585F5F 
 2314      20305846 
 2315              	.LASF346:
 2316 1d27 5F5F534F 		.ascii	"__SOFTFP__ 1\000"
 2316      46544650 
 2316      5F5F2031 
 2316      00
 2317              	.LASF352:
 2318 1d34 5F5F4758 		.ascii	"__GXX_TYPEINFO_EQUALITY_INLINE 0\000"
 2318      585F5459 
 2318      5045494E 
 2318      464F5F45 
 2318      5155414C 
 2319              	.LASF266:
 2320 1d55 5F5F4C41 		.ascii	"__LACCUM_MIN__ (-0X1P31LK-0X1P31LK)\000"
 2320      4343554D 
 2320      5F4D494E 
 2320      5F5F2028 
 2320      2D305831 
 2321              	.LASF40:
 2322 1d79 5F5F4348 		.ascii	"__CHAR_BIT__ 8\000"
 2322      41525F42 
 2322      49545F5F 
 2322      203800
 2323              	.LASF103:
 2324 1d88 5F5F5349 		.ascii	"__SIG_ATOMIC_MIN__ (-__SIG_ATOMIC_MAX__ - 1)\000"
 2324      475F4154 
ARM GAS  /var/folders/wv/bpgj319905s5rl92drfwf9k40000gn/T//ccs5NhWZ.s 			page 64


 2324      4F4D4943 
 2324      5F4D494E 
 2324      5F5F2028 
 2325              	.LASF271:
 2326 1db5 5F5F554C 		.ascii	"__ULACCUM_MIN__ 0.0ULK\000"
 2326      41434355 
 2326      4D5F4D49 
 2326      4E5F5F20 
 2326      302E3055 
 2327              	.LASF307:
 2328 1dcc 5F5F5341 		.ascii	"__SA_IBIT__ 16\000"
 2328      5F494249 
 2328      545F5F20 
 2328      313600
 2329              	.LASF188:
 2330 1ddb 5F5F4445 		.ascii	"__DEC32_EPSILON__ 1E-6DF\000"
 2330      4333325F 
 2330      45505349 
 2330      4C4F4E5F 
 2330      5F203145 
 2331              	.LASF216:
 2332 1df4 5F5F4652 		.ascii	"__FRACT_MIN__ (-0.5R-0.5R)\000"
 2332      4143545F 
 2332      4D494E5F 
 2332      5F20282D 
 2332      302E3552 
 2333              	.LASF11:
 2334 1e0f 6C706331 		.ascii	"lpc1114.c\000"
 2334      3131342E 
 2334      6300
 2335              	.LASF76:
 2336 1e19 5F5F494E 		.ascii	"__INT_FAST32_TYPE__ int\000"
 2336      545F4641 
 2336      53543332 
 2336      5F545950 
 2336      455F5F20 
 2337              	.LASF79:
 2338 1e31 5F5F5549 		.ascii	"__UINT_FAST16_TYPE__ unsigned int\000"
 2338      4E545F46 
 2338      41535431 
 2338      365F5459 
 2338      50455F5F 
 2339              	.LASF215:
 2340 1e53 5F5F4652 		.ascii	"__FRACT_IBIT__ 0\000"
 2340      4143545F 
 2340      49424954 
 2340      5F5F2030 
 2340      00
 2341              	.LASF136:
 2342 1e64 5F5F494E 		.ascii	"__INTPTR_MAX__ 2147483647\000"
 2342      54505452 
 2342      5F4D4158 
 2342      5F5F2032 
 2342      31343734 
 2343              	.LASF217:
 2344 1e7e 5F5F4652 		.ascii	"__FRACT_MAX__ 0X7FFFP-15R\000"
 2344      4143545F 
ARM GAS  /var/folders/wv/bpgj319905s5rl92drfwf9k40000gn/T//ccs5NhWZ.s 			page 65


 2344      4D41585F 
 2344      5F203058 
 2344      37464646 
 2345              	.LASF84:
 2346 1e98 5F5F4758 		.ascii	"__GXX_WEAK__ 1\000"
 2346      585F5745 
 2346      414B5F5F 
 2346      203100
 2347              	.LASF194:
 2348 1ea7 5F5F4445 		.ascii	"__DEC64_MAX__ 9.999999999999999E384DD\000"
 2348      4336345F 
 2348      4D41585F 
 2348      5F20392E 
 2348      39393939 
 2349              	.LASF274:
 2350 1ecd 5F5F4C4C 		.ascii	"__LLACCUM_FBIT__ 31\000"
 2350      41434355 
 2350      4D5F4642 
 2350      49545F5F 
 2350      20333100 
 2351              	.LASF168:
 2352 1ee1 5F5F4442 		.ascii	"__DBL_HAS_QUIET_NAN__ 1\000"
 2352      4C5F4841 
 2352      535F5155 
 2352      4945545F 
 2352      4E414E5F 
 2353              	.LASF144:
 2354 1ef9 5F5F464C 		.ascii	"__FLT_MIN_10_EXP__ (-37)\000"
 2354      545F4D49 
 2354      4E5F3130 
 2354      5F455850 
 2354      5F5F2028 
 2355              	.LASF239:
 2356 1f12 5F5F554C 		.ascii	"__ULLFRACT_FBIT__ 64\000"
 2356      4C465241 
 2356      43545F46 
 2356      4249545F 
 2356      5F203634 
 2357              	.LASF191:
 2358 1f27 5F5F4445 		.ascii	"__DEC64_MIN_EXP__ (-382)\000"
 2358      4336345F 
 2358      4D494E5F 
 2358      4558505F 
 2358      5F20282D 
 2359              	.LASF236:
 2360 1f40 5F5F4C4C 		.ascii	"__LLFRACT_MIN__ (-0.5LLR-0.5LLR)\000"
 2360      46524143 
 2360      545F4D49 
 2360      4E5F5F20 
 2360      282D302E 
 2361              	.LASF100:
 2362 1f61 5F5F5549 		.ascii	"__UINTMAX_MAX__ 18446744073709551615ULL\000"
 2362      4E544D41 
 2362      585F4D41 
 2362      585F5F20 
 2362      31383434 
 2363              	.LASF275:
ARM GAS  /var/folders/wv/bpgj319905s5rl92drfwf9k40000gn/T//ccs5NhWZ.s 			page 66


 2364 1f89 5F5F4C4C 		.ascii	"__LLACCUM_IBIT__ 32\000"
 2364      41434355 
 2364      4D5F4942 
 2364      49545F5F 
 2364      20333200 
 2365              	.LASF273:
 2366 1f9d 5F5F554C 		.ascii	"__ULACCUM_EPSILON__ 0x1P-32ULK\000"
 2366      41434355 
 2366      4D5F4550 
 2366      53494C4F 
 2366      4E5F5F20 
 2367              	.LASF282:
 2368 1fbc 5F5F554C 		.ascii	"__ULLACCUM_MAX__ 0XFFFFFFFFFFFFFFFFP-32ULLK\000"
 2368      4C414343 
 2368      554D5F4D 
 2368      41585F5F 
 2368      20305846 
 2369              	.LASF251:
 2370 1fe8 5F5F5553 		.ascii	"__USACCUM_MIN__ 0.0UHK\000"
 2370      41434355 
 2370      4D5F4D49 
 2370      4E5F5F20 
 2370      302E3055 
 2371              	.LASF132:
 2372 1fff 5F5F5549 		.ascii	"__UINT_FAST8_MAX__ 4294967295U\000"
 2372      4E545F46 
 2372      41535438 
 2372      5F4D4158 
 2372      5F5F2034 
 2373              	.LASF277:
 2374 201e 5F5F4C4C 		.ascii	"__LLACCUM_MAX__ 0X7FFFFFFFFFFFFFFFP-31LLK\000"
 2374      41434355 
 2374      4D5F4D41 
 2374      585F5F20 
 2374      30583746 
 2375              	.LASF324:
 2376 2048 5F5F5743 		.ascii	"__WCHAR_UNSIGNED__ 1\000"
 2376      4841525F 
 2376      554E5349 
 2376      474E4544 
 2376      5F5F2031 
 2377              	.LASF261:
 2378 205d 5F5F5541 		.ascii	"__UACCUM_MIN__ 0.0UK\000"
 2378      4343554D 
 2378      5F4D494E 
 2378      5F5F2030 
 2378      2E30554B 
 2379              	.LASF314:
 2380 2072 5F5F5553 		.ascii	"__USA_FBIT__ 16\000"
 2380      415F4642 
 2380      49545F5F 
 2380      20313600 
 2381              	.LASF321:
 2382 2082 5F5F5553 		.ascii	"__USER_LABEL_PREFIX__ \000"
 2382      45525F4C 
 2382      4142454C 
 2382      5F505245 
ARM GAS  /var/folders/wv/bpgj319905s5rl92drfwf9k40000gn/T//ccs5NhWZ.s 			page 67


 2382      4649585F 
 2383              	.LASF235:
 2384 2099 5F5F4C4C 		.ascii	"__LLFRACT_IBIT__ 0\000"
 2384      46524143 
 2384      545F4942 
 2384      49545F5F 
 2384      203000
 2385              	.LASF10:
 2386 20ac 474E5520 		.ascii	"GNU C++ 4.7.4 20130613 (release) [ARM/embedded-4_7-"
 2386      432B2B20 
 2386      342E372E 
 2386      34203230 
 2386      31333036 
 2387 20df 6272616E 		.ascii	"branch revision 200083]\000"
 2387      63682072 
 2387      65766973 
 2387      696F6E20 
 2387      32303030 
 2388              	.LASF110:
 2389 20f7 5F5F5549 		.ascii	"__UINT32_MAX__ 4294967295UL\000"
 2389      4E543332 
 2389      5F4D4158 
 2389      5F5F2034 
 2389      32393439 
 2390              	.LASF81:
 2391 2113 5F5F5549 		.ascii	"__UINT_FAST64_TYPE__ long long unsigned int\000"
 2391      4E545F46 
 2391      41535436 
 2391      345F5459 
 2391      50455F5F 
 2392              	.LASF121:
 2393 213f 5F5F5549 		.ascii	"__UINT8_C(c) c\000"
 2393      4E54385F 
 2393      43286329 
 2393      206300
 2394              	.LASF70:
 2395 214e 5F5F5549 		.ascii	"__UINT_LEAST8_TYPE__ unsigned char\000"
 2395      4E545F4C 
 2395      45415354 
 2395      385F5459 
 2395      50455F5F 
 2396              	.LASF330:
 2397 2171 5F5F4743 		.ascii	"__GCC_ATOMIC_SHORT_LOCK_FREE 1\000"
 2397      435F4154 
 2397      4F4D4943 
 2397      5F53484F 
 2397      52545F4C 
 2398              	.LASF15:
 2399 2190 6D61696E 		.ascii	"main\000"
 2399      00
 2400              	.LASF256:
 2401 2195 5F5F4143 		.ascii	"__ACCUM_MIN__ (-0X1P15K-0X1P15K)\000"
 2401      43554D5F 
 2401      4D494E5F 
 2401      5F20282D 
 2401      30583150 
 2402              	.LASF335:
ARM GAS  /var/folders/wv/bpgj319905s5rl92drfwf9k40000gn/T//ccs5NhWZ.s 			page 68


 2403 21b6 5F5F4743 		.ascii	"__GCC_ATOMIC_POINTER_LOCK_FREE 1\000"
 2403      435F4154 
 2403      4F4D4943 
 2403      5F504F49 
 2403      4E544552 
 2404              	.LASF162:
 2405 21d7 5F5F4442 		.ascii	"__DBL_MAX__ double(1.7976931348623157e+308L)\000"
 2405      4C5F4D41 
 2405      585F5F20 
 2405      646F7562 
 2405      6C652831 
 2406              	.LASF137:
 2407 2204 5F5F5549 		.ascii	"__UINTPTR_MAX__ 4294967295U\000"
 2407      4E545054 
 2407      525F4D41 
 2407      585F5F20 
 2407      34323934 
 2408              	.LASF152:
 2409 2220 5F5F464C 		.ascii	"__FLT_HAS_DENORM__ 1\000"
 2409      545F4841 
 2409      535F4445 
 2409      4E4F524D 
 2409      5F5F2031 
 2410              	.LASF193:
 2411 2235 5F5F4445 		.ascii	"__DEC64_MIN__ 1E-383DD\000"
 2411      4336345F 
 2411      4D494E5F 
 2411      5F203145 
 2411      2D333833 
 2412              	.LASF158:
 2413 224c 5F5F4442 		.ascii	"__DBL_MIN_10_EXP__ (-307)\000"
 2413      4C5F4D49 
 2413      4E5F3130 
 2413      5F455850 
 2413      5F5F2028 
 2414              	.LASF245:
 2415 2266 5F5F5341 		.ascii	"__SACCUM_IBIT__ 8\000"
 2415      4343554D 
 2415      5F494249 
 2415      545F5F20 
 2415      3800
 2416              	.LASF310:
 2417 2278 5F5F5441 		.ascii	"__TA_FBIT__ 63\000"
 2417      5F464249 
 2417      545F5F20 
 2417      363300
 2418              	.LASF87:
 2419 2287 5F5F5343 		.ascii	"__SCHAR_MAX__ 127\000"
 2419      4841525F 
 2419      4D41585F 
 2419      5F203132 
 2419      3700
 2420              		.ident	"GCC: (GNU Tools for ARM Embedded Processors) 4.7.4 20130613 (release) [ARM/embedded-4_7-br
ARM GAS  /var/folders/wv/bpgj319905s5rl92drfwf9k40000gn/T//ccs5NhWZ.s 			page 69


DEFINED SYMBOLS
                            *ABS*:0000000000000000 lpc1114.c
/var/folders/wv/bpgj319905s5rl92drfwf9k40000gn/T//ccs5NhWZ.s:64     .text.__startup:0000000000000000 $t
/var/folders/wv/bpgj319905s5rl92drfwf9k40000gn/T//ccs5NhWZ.s:69     .text.__startup:0000000000000000 __startup
/var/folders/wv/bpgj319905s5rl92drfwf9k40000gn/T//ccs5NhWZ.s:148    .text.__startup:0000000000000048 $d
/var/folders/wv/bpgj319905s5rl92drfwf9k40000gn/T//ccs5NhWZ.s:160    .text.__cxa_pure_virtual:0000000000000000 $t
/var/folders/wv/bpgj319905s5rl92drfwf9k40000gn/T//ccs5NhWZ.s:165    .text.__cxa_pure_virtual:0000000000000000 __cxa_pure_virtual
/var/folders/wv/bpgj319905s5rl92drfwf9k40000gn/T//ccs5NhWZ.s:179    .vectors:0000000000000000 __vectors
/var/folders/wv/bpgj319905s5rl92drfwf9k40000gn/T//ccs5NhWZ.s:176    .vectors:0000000000000000 $d
                     .debug_frame:0000000000000010 $d
                           .group:0000000000000000 wm4.1.8ebf1c990d6a0cbee7a5e554ec03ca59

UNDEFINED SYMBOLS
main
__bss_start
__bss_end
__data_end
__data_start
__data_init_start
__init_array_start
__init_array_end
__stack_end
_Z15TIMER0_OVF_vectv
_Z15UART_IRQHandlerv
