ARM GAS  /var/folders/wv/bpgj319905s5rl92drfwf9k40000gn/T//ccaqzwiJ.s 			page 1


   1              		.cpu cortex-m0
   2              		.fpu softvfp
   3              		.eabi_attribute 20, 1	@ Tag_ABI_FP_denormal
   4              		.eabi_attribute 21, 1	@ Tag_ABI_FP_exceptions
   5              		.eabi_attribute 23, 3	@ Tag_ABI_FP_number_model
   6              		.eabi_attribute 24, 1	@ Tag_ABI_align8_needed
   7              		.eabi_attribute 25, 1	@ Tag_ABI_align8_preserved
   8              		.eabi_attribute 26, 1	@ Tag_ABI_enum_size
   9              		.eabi_attribute 30, 4	@ Tag_ABI_optimization_goals
  10              		.eabi_attribute 34, 0	@ Tag_CPU_unaligned_access
  11              		.eabi_attribute 18, 4	@ Tag_ABI_PCS_wchar_t
  12              		.file	"printf.c"
  13              	@ GNU C++ (GNU Tools for ARM Embedded Processors) version 4.7.4 20130613 (release) [ARM/embedded-4_
  14              	@	compiled by GNU C version 4.2.1 (Based on Apple Inc. build 5658) (LLVM build 2336.9.00), GMP vers
  15              	@ GGC heuristics: --param ggc-min-expand=100 --param ggc-min-heapsize=131072
  16              	@ options passed:  -I . -imultilib armv6-m
  17              	@ -iprefix /Users/stevenparker/toolchains/gcc-arm-none-eabi-4_7-2013q2/bin/../lib/gcc/arm-none-eabi
  18              	@ -isysroot /Users/stevenparker/toolchains/gcc-arm-none-eabi-4_7-2013q2/bin/../arm-none-eabi
  19              	@ -MD out/printf.d -MF out/printf.d -MP -MQ out/printf.o
  20              	@ -D__USES_INITFINI__ printf.c -mcpu=cortex-m0 -mthumb
  21              	@ -auxbase-strip out/printf.o -g -ggdb3 -Os -std=gnu++98
  22              	@ -ffunction-sections -fdata-sections -fno-rtti -fno-exceptions
  23              	@ -fverbose-asm
  24              	@ options enabled:  -fauto-inc-dec -fbranch-count-reg -fcaller-saves
  25              	@ -fcombine-stack-adjustments -fcommon -fcompare-elim -fcprop-registers
  26              	@ -fcrossjumping -fcse-follow-jumps -fdata-sections -fdebug-types-section
  27              	@ -fdefer-pop -fdelete-null-pointer-checks -fdevirtualize -fdwarf2-cfi-asm
  28              	@ -fearly-inlining -feliminate-unused-debug-types -fexpensive-optimizations
  29              	@ -fforward-propagate -ffunction-cse -ffunction-sections -fgcse -fgcse-lm
  30              	@ -fgnu-runtime -fguess-branch-probability -fident -fif-conversion
  31              	@ -fif-conversion2 -findirect-inlining -finline -finline-atomics
  32              	@ -finline-functions -finline-functions-called-once
  33              	@ -finline-small-functions -fipa-cp -fipa-profile -fipa-pure-const
  34              	@ -fipa-reference -fipa-sra -fira-hoist-pressure -fira-share-save-slots
  35              	@ -fira-share-spill-slots -fivopts -fkeep-static-consts
  36              	@ -fleading-underscore -fmath-errno -fmerge-constants -fmerge-debug-strings
  37              	@ -fomit-frame-pointer -foptimize-register-move -foptimize-sibling-calls
  38              	@ -fpartial-inlining -fpeephole -fpeephole2 -fprefetch-loop-arrays
  39              	@ -freg-struct-return -fregmove -frename-registers -freorder-blocks
  40              	@ -freorder-functions -frerun-cse-after-loop
  41              	@ -fsched-critical-path-heuristic -fsched-dep-count-heuristic
  42              	@ -fsched-group-heuristic -fsched-interblock -fsched-last-insn-heuristic
  43              	@ -fsched-rank-heuristic -fsched-spec -fsched-spec-insn-heuristic
  44              	@ -fsched-stalled-insns-dep -fschedule-insns2 -fsection-anchors
  45              	@ -fshow-column -fshrink-wrap -fsigned-zeros -fsplit-ivs-in-unroller
  46              	@ -fsplit-wide-types -fstrict-aliasing -fstrict-overflow
  47              	@ -fstrict-volatile-bitfields -fthread-jumps -ftoplevel-reorder
  48              	@ -ftrapping-math -ftree-bit-ccp -ftree-builtin-call-dce -ftree-ccp
  49              	@ -ftree-ch -ftree-copy-prop -ftree-copyrename -ftree-cselim -ftree-dce
  50              	@ -ftree-dominator-opts -ftree-dse -ftree-forwprop -ftree-fre
  51              	@ -ftree-loop-if-convert -ftree-loop-im -ftree-loop-ivcanon
  52              	@ -ftree-loop-optimize -ftree-parallelize-loops= -ftree-phiprop -ftree-pre
  53              	@ -ftree-pta -ftree-reassoc -ftree-scev-cprop -ftree-sink
  54              	@ -ftree-slp-vectorize -ftree-sra -ftree-switch-conversion
  55              	@ -ftree-tail-merge -ftree-ter -ftree-vect-loop-version -ftree-vrp
  56              	@ -funit-at-a-time -funroll-loops -fvar-tracking -fvar-tracking-assignments
  57              	@ -fverbose-asm -fweb -fzero-initialized-in-bss -mlittle-endian
ARM GAS  /var/folders/wv/bpgj319905s5rl92drfwf9k40000gn/T//ccaqzwiJ.s 			page 2


  58              	@ -msched-prolog -mthumb -mvectorize-with-neon-quad
  59              	
  60              		.text
  61              	.Ltext0:
  62              		.cfi_sections	.debug_frame
  63              		.global	__aeabi_uidiv
  64              		.global	__aeabi_uidivmod
  65              		.section	.text._ZL4ui2ajjiPc,"ax",%progbits
  66              		.align	1
  67              		.code	16
  68              		.thumb_func
  69              		.type	_ZL4ui2ajjiPc, %function
  70              	_ZL4ui2ajjiPc:
  71              	.LFB0:
  72              		.file 1 "printf.c"
   1:printf.c      **** /*
   2:printf.c      ****  * Copyright (c) 2004,2012 Kustaa Nyholm / SpareTimeLabs
   3:printf.c      ****  *
   4:printf.c      ****  * All rights reserved.
   5:printf.c      ****  *
   6:printf.c      ****  * Redistribution and use in source and binary forms, with or without modification, 
   7:printf.c      ****  * are permitted provided that the following conditions are met:
   8:printf.c      ****  *
   9:printf.c      ****  * Redistributions of source code must retain the above copyright notice, this list 
  10:printf.c      ****  * of conditions and the following disclaimer.
  11:printf.c      ****  * 
  12:printf.c      ****  * Redistributions in binary form must reproduce the above copyright notice, this 
  13:printf.c      ****  * list of conditions and the following disclaimer in the documentation and/or other
  14:printf.c      ****  * materials provided with the distribution.
  15:printf.c      ****  *  
  16:printf.c      ****  * Neither the name of the Kustaa Nyholm or SpareTimeLabs nor the names of its 
  17:printf.c      ****  * contributors may be used to endorse or promote products derived from this software 
  18:printf.c      ****  * without specific prior written permission.
  19:printf.c      ****  * 
  20:printf.c      ****  * THIS SOFTWARE IS PROVIDED BY THE COPYRIGHT HOLDERS AND CONTRIBUTORS "AS IS" 
  21:printf.c      ****  * AND ANY EXPRESS OR IMPLIED WARRANTIES, INCLUDING, BUT NOT LIMITED TO, THE IMPLIED 
  22:printf.c      ****  * WARRANTIES OF MERCHANTABILITY AND FITNESS FOR A PARTICULAR PURPOSE ARE DISCLAIMED. 
  23:printf.c      ****  * IN NO EVENT SHALL THE COPYRIGHT HOLDER OR CONTRIBUTORS BE LIABLE FOR ANY DIRECT, 
  24:printf.c      ****  * INDIRECT, INCIDENTAL, SPECIAL, EXEMPLARY, OR CONSEQUENTIAL DAMAGES (INCLUDING, BUT 
  25:printf.c      ****  * NOT LIMITED TO, PROCUREMENT OF SUBSTITUTE GOODS OR SERVICES; LOSS OF USE, DATA, 
  26:printf.c      ****  * OR PROFITS; OR BUSINESS INTERRUPTION) HOWEVER CAUSED AND ON ANY THEORY OF LIABILITY, 
  27:printf.c      ****  * WHETHER IN CONTRACT, STRICT LIABILITY, OR TORT (INCLUDING NEGLIGENCE OR OTHERWISE) 
  28:printf.c      ****  * ARISING IN ANY WAY OUT OF THE USE OF THIS SOFTWARE, EVEN IF ADVISED OF THE POSSIBILITY
  29:printf.c      ****  * OF SUCH DAMAGE.
  30:printf.c      ****  */
  31:printf.c      **** 
  32:printf.c      **** #include "printf.h"
  33:printf.c      **** 
  34:printf.c      **** typedef void (*putcf) (void*,char);
  35:printf.c      **** static putcf stdout_putf;
  36:printf.c      **** static void* stdout_putp;
  37:printf.c      **** 
  38:printf.c      **** 
  39:printf.c      **** #ifdef PRINTF_LONG_SUPPORT
  40:printf.c      **** 
  41:printf.c      **** static void uli2a(unsigned long int num, unsigned int base, int uc,char * bf)
  42:printf.c      **** 	{
ARM GAS  /var/folders/wv/bpgj319905s5rl92drfwf9k40000gn/T//ccaqzwiJ.s 			page 3


  43:printf.c      **** 	int n=0;
  44:printf.c      **** 	unsigned int d=1;
  45:printf.c      **** 	while (num/d >= base)
  46:printf.c      **** 		d*=base;		 
  47:printf.c      **** 	while (d!=0) {
  48:printf.c      **** 		int dgt = num / d;
  49:printf.c      **** 		num%=d;
  50:printf.c      **** 		d/=base;
  51:printf.c      **** 		if (n || dgt>0|| d==0) {
  52:printf.c      **** 			*bf++ = dgt+(dgt<10 ? '0' : (uc ? 'A' : 'a')-10);
  53:printf.c      **** 			++n;
  54:printf.c      **** 			}
  55:printf.c      **** 		}
  56:printf.c      **** 	*bf=0;
  57:printf.c      **** 	}
  58:printf.c      **** 
  59:printf.c      **** static void li2a (long num, char * bf)
  60:printf.c      **** 	{
  61:printf.c      **** 	if (num<0) {
  62:printf.c      **** 		num=-num;
  63:printf.c      **** 		*bf++ = '-';
  64:printf.c      **** 		}
  65:printf.c      **** 	uli2a(num,10,0,bf);
  66:printf.c      **** 	}
  67:printf.c      **** 
  68:printf.c      **** #endif
  69:printf.c      **** 
  70:printf.c      **** static void ui2a(unsigned int num, unsigned int base, int uc,char * bf)
  71:printf.c      **** 	{
  73              		.loc 1 71 0
  74              		.cfi_startproc
  75              	.LVL0:
  76 0000 F0B5     		push	{r4, r5, r6, r7, lr}	@
  77              	.LCFI0:
  78              		.cfi_def_cfa_offset 20
  79              		.cfi_offset 4, -20
  80              		.cfi_offset 5, -16
  81              		.cfi_offset 6, -12
  82              		.cfi_offset 7, -8
  83              		.cfi_offset 14, -4
  84 0002 85B0     		sub	sp, sp, #20	@,,
  85              	.LCFI1:
  86              		.cfi_def_cfa_offset 40
  87              		.loc 1 71 0
  88 0004 051C     		mov	r5, r0	@ num, num
  89 0006 0291     		str	r1, [sp, #8]	@ base, %sfp
  90 0008 0392     		str	r2, [sp, #12]	@ uc, %sfp
  91 000a 1E1C     		mov	r6, r3	@ bf, bf
  92              	.LBB6:
  72:printf.c      **** 	int n=0;
  73:printf.c      **** 	unsigned int d=1;
  93              		.loc 1 73 0
  94 000c 0124     		mov	r4, #1	@ d,
  95              	.LVL1:
  96              	.L2:
  74:printf.c      **** 	while (num/d >= base)
  97              		.loc 1 74 0 discriminator 1
ARM GAS  /var/folders/wv/bpgj319905s5rl92drfwf9k40000gn/T//ccaqzwiJ.s 			page 4


  98 000e 281C     		mov	r0, r5	@, num
  99 0010 211C     		mov	r1, r4	@, d
 100 0012 FFF7FEFF 		bl	__aeabi_uidiv	@
 101              	.LVL2:
 102 0016 029B     		ldr	r3, [sp, #8]	@, %sfp
 103 0018 9842     		cmp	r0, r3	@ tmp149,
 104 001a 02D3     		bcc	.L15	@,
 105              	.L3:
  75:printf.c      **** 		d*=base;		
 106              		.loc 1 75 0
 107 001c 029A     		ldr	r2, [sp, #8]	@, %sfp
 108 001e 5443     		mul	r4, r2	@ d,
 109              	.LVL3:
 110 0020 F5E7     		b	.L2	@
 111              	.L15:
  74:printf.c      **** 	while (num/d >= base)
 112              		.loc 1 74 0 discriminator 1
 113 0022 0021     		mov	r1, #0	@,
 114 0024 0191     		str	r1, [sp, #4]	@, %sfp
 115              	.LVL4:
 116              	.L4:
  76:printf.c      **** 	while (d!=0) {
 117              		.loc 1 76 0 discriminator 1
 118 0026 002C     		cmp	r4, #0	@ d,
 119 0028 25D0     		beq	.L16	@,
 120              	.L11:
 121              	.LBB7:
  77:printf.c      **** 		int dgt = num / d;
 122              		.loc 1 77 0
 123 002a 211C     		mov	r1, r4	@, d
 124 002c 281C     		mov	r0, r5	@, num
 125 002e FFF7FEFF 		bl	__aeabi_uidiv	@
 126              	.LVL5:
  78:printf.c      **** 		num%= d;
 127              		.loc 1 78 0
 128 0032 211C     		mov	r1, r4	@, d
  77:printf.c      **** 		int dgt = num / d;
 129              		.loc 1 77 0
 130 0034 071C     		mov	r7, r0	@ D.4708,
 131              	.LVL6:
 132              		.loc 1 78 0
 133 0036 281C     		mov	r0, r5	@, num
 134              	.LVL7:
 135 0038 FFF7FEFF 		bl	__aeabi_uidivmod	@
 136              	.LVL8:
  79:printf.c      **** 		d/=base;
 137              		.loc 1 79 0
 138 003c 201C     		mov	r0, r4	@, d
  78:printf.c      **** 		num%= d;
 139              		.loc 1 78 0
 140 003e 0D1C     		mov	r5, r1	@ num,
 141              	.LVL9:
 142              		.loc 1 79 0
 143 0040 0299     		ldr	r1, [sp, #8]	@, %sfp
 144              	.LVL10:
 145 0042 FFF7FEFF 		bl	__aeabi_uidiv	@
 146              	.LVL11:
ARM GAS  /var/folders/wv/bpgj319905s5rl92drfwf9k40000gn/T//ccaqzwiJ.s 			page 5


 147 0046 041C     		mov	r4, r0	@ d,
 148              	.LVL12:
  80:printf.c      **** 		if (n || dgt>0 || d==0) {
 149              		.loc 1 80 0
 150 0048 0198     		ldr	r0, [sp, #4]	@, %sfp
 151              	.LVL13:
 152 004a 0028     		cmp	r0, #0	@,
 153 004c 03D1     		bne	.L5	@,
 154              		.loc 1 80 0 is_stmt 0 discriminator 1
 155 004e 002F     		cmp	r7, #0	@ D.4708,
 156 0050 01DC     		bgt	.L5	@,
 157              		.loc 1 80 0 discriminator 2
 158 0052 002C     		cmp	r4, #0	@ d,
 159 0054 E9D1     		bne	.L11	@,
 160              	.L5:
  81:printf.c      **** 			*bf++ = dgt+(dgt<10 ? '0' : (uc ? 'A' : 'a')-10);
 161              		.loc 1 81 0 is_stmt 1
 162 0056 FAB2     		uxtb	r2, r7	@ D.4718, D.4708
 163 0058 3023     		mov	r3, #48	@ iftmp.8,
 164 005a 092F     		cmp	r7, #9	@ D.4708,
 165 005c 04DD     		ble	.L7	@,
 166              		.loc 1 81 0 is_stmt 0 discriminator 1
 167 005e 0399     		ldr	r1, [sp, #12]	@, %sfp
 168 0060 5723     		mov	r3, #87	@ iftmp.8,
 169 0062 0029     		cmp	r1, #0	@,
 170 0064 00D0     		beq	.L7	@,
 171              		.loc 1 81 0
 172 0066 3723     		mov	r3, #55	@ iftmp.8,
 173              	.L7:
  82:printf.c      **** 			++n;
 174              		.loc 1 82 0 is_stmt 1 discriminator 6
 175 0068 0198     		ldr	r0, [sp, #4]	@, %sfp
  81:printf.c      **** 			*bf++ = dgt+(dgt<10 ? '0' : (uc ? 'A' : 'a')-10);
 176              		.loc 1 81 0 discriminator 6
 177 006a 9F18     		add	r7, r3, r2	@ tmp162, iftmp.8, D.4718
 178              	.LVL14:
 179              		.loc 1 82 0 discriminator 6
 180 006c 0130     		add	r0, r0, #1	@,
  81:printf.c      **** 			*bf++ = dgt+(dgt<10 ? '0' : (uc ? 'A' : 'a')-10);
 181              		.loc 1 81 0 discriminator 6
 182 006e 3770     		strb	r7, [r6]	@ tmp162, *bf_2
 183              		.loc 1 82 0 discriminator 6
 184 0070 0190     		str	r0, [sp, #4]	@, %sfp
  81:printf.c      **** 			*bf++ = dgt+(dgt<10 ? '0' : (uc ? 'A' : 'a')-10);
 185              		.loc 1 81 0 discriminator 6
 186 0072 0136     		add	r6, r6, #1	@ bf,
 187              	.LVL15:
 188 0074 D7E7     		b	.L4	@
 189              	.LVL16:
 190              	.L16:
 191              	.LBE7:
  83:printf.c      **** 			}
  84:printf.c      **** 		}
  85:printf.c      **** 	*bf=0;
 192              		.loc 1 85 0
 193 0076 3470     		strb	r4, [r6]	@ d, *bf_8
 194              	.LBE6:
ARM GAS  /var/folders/wv/bpgj319905s5rl92drfwf9k40000gn/T//ccaqzwiJ.s 			page 6


  86:printf.c      **** 	}
 195              		.loc 1 86 0
 196 0078 05B0     		add	sp, sp, #20	@,,
 197              		@ sp needed for prologue	@
 198              	.LVL17:
 199              	.LVL18:
 200              	.LVL19:
 201 007a F0BD     		pop	{r4, r5, r6, r7, pc}
 202              		.cfi_endproc
 203              	.LFE0:
 204              		.size	_ZL4ui2ajjiPc, .-_ZL4ui2ajjiPc
 205              		.section	.text._ZL6putchwPvPFvS_cEicPc,"ax",%progbits
 206              		.align	1
 207              		.code	16
 208              		.thumb_func
 209              		.type	_ZL6putchwPvPFvS_cEicPc, %function
 210              	_ZL6putchwPvPFvS_cEicPc:
 211              	.LFB4:
  87:printf.c      **** 
  88:printf.c      **** static void i2a (int num, char * bf)
  89:printf.c      **** 	{
  90:printf.c      **** 	if (num<0) {
  91:printf.c      **** 		num=-num;
  92:printf.c      **** 		*bf++ = '-';
  93:printf.c      **** 		}
  94:printf.c      **** 	ui2a(num,10,0,bf);
  95:printf.c      **** 	}
  96:printf.c      **** 
  97:printf.c      **** static int a2d(char ch)
  98:printf.c      **** 	{
  99:printf.c      **** 	if (ch>='0' && ch<='9') 
 100:printf.c      **** 		return ch-'0';
 101:printf.c      **** 	else if (ch>='a' && ch<='f')
 102:printf.c      **** 		return ch-'a'+10;
 103:printf.c      **** 	else if (ch>='A' && ch<='F')
 104:printf.c      **** 		return ch-'A'+10;
 105:printf.c      **** 	else return -1;
 106:printf.c      **** 	}
 107:printf.c      **** 
 108:printf.c      **** static char a2i(char ch, char** src,int base,int* nump)
 109:printf.c      **** 	{
 110:printf.c      **** 	char* p= *src;
 111:printf.c      **** 	int num=0;
 112:printf.c      **** 	int digit;
 113:printf.c      **** 	while ((digit=a2d(ch))>=0) {
 114:printf.c      **** 		if (digit>base) break;
 115:printf.c      **** 		num=num*base+digit;
 116:printf.c      **** 		ch=*p++;
 117:printf.c      **** 		}
 118:printf.c      **** 	*src=p;
 119:printf.c      **** 	*nump=num;
 120:printf.c      **** 	return ch;
 121:printf.c      **** 	}
 122:printf.c      **** 
 123:printf.c      **** static void putchw(void* putp,putcf putf,int n, char z, char* bf)
 124:printf.c      **** 	{
 212              		.loc 1 124 0
ARM GAS  /var/folders/wv/bpgj319905s5rl92drfwf9k40000gn/T//ccaqzwiJ.s 			page 7


 213              		.cfi_startproc
 214              	.LVL20:
 215 0000 F8B5     		push	{r3, r4, r5, r6, r7, lr}	@
 216              	.LCFI2:
 217              		.cfi_def_cfa_offset 24
 218              		.cfi_offset 3, -24
 219              		.cfi_offset 4, -20
 220              		.cfi_offset 5, -16
 221              		.cfi_offset 6, -12
 222              		.cfi_offset 7, -8
 223              		.cfi_offset 14, -4
 224              		.loc 1 124 0
 225 0002 061C     		mov	r6, r0	@ putp, putp
 226 0004 0F1C     		mov	r7, r1	@ putf, putf
 227              	.LBB8:
 125:printf.c      **** 	char fc=z? '0' : ' ';
 228              		.loc 1 125 0
 229 0006 2024     		mov	r4, #32	@ fc,
 230 0008 002B     		cmp	r3, #0	@ z,
 231 000a 00D0     		beq	.L18	@,
 232 000c 3024     		mov	r4, #48	@ fc,
 233              	.L18:
 234              	.LVL21:
 126:printf.c      **** 	char ch;
 127:printf.c      **** 	char* p=bf;
 235              		.loc 1 127 0 discriminator 3
 236 000e 069B     		ldr	r3, [sp, #24]	@ p, bf
 237              	.LVL22:
 238              	.L26:
 128:printf.c      **** 	while (*p++ && n > 0)
 239              		.loc 1 128 0 discriminator 1
 240 0010 1978     		ldrb	r1, [r3]	@ MEM[base: p_4, offset: 0B], MEM[base: p_4, offset: 0B]
 241 0012 0029     		cmp	r1, #0	@ MEM[base: p_4, offset: 0B],
 242 0014 01D1     		bne	.L19	@,
 243              	.L22:
 244 0016 151C     		mov	r5, r2	@ ivtmp.41, n
 245 0018 04E0     		b	.L20	@
 246              	.L19:
 247              		.loc 1 128 0 is_stmt 0 discriminator 2
 248 001a 002A     		cmp	r2, #0	@ n,
 249 001c FBDD     		ble	.L22	@,
 250              	.L21:
 251              		.loc 1 128 0
 252 001e 0133     		add	r3, r3, #1	@ p,
 253              	.LVL23:
 129:printf.c      **** 		n--;
 254              		.loc 1 129 0 is_stmt 1
 255 0020 013A     		sub	r2, r2, #1	@ n,
 256              	.LVL24:
 257 0022 F5E7     		b	.L26	@
 258              	.LVL25:
 259              	.L20:
 130:printf.c      **** 	while (n-- > 0) 
 260              		.loc 1 130 0 discriminator 1
 261 0024 002D     		cmp	r5, #0	@ ivtmp.41,
 262 0026 04DD     		ble	.L29	@,
 263              	.L23:
ARM GAS  /var/folders/wv/bpgj319905s5rl92drfwf9k40000gn/T//ccaqzwiJ.s 			page 8


 131:printf.c      **** 		putf(putp,fc);
 264              		.loc 1 131 0
 265 0028 301C     		mov	r0, r6	@, putp
 266 002a 211C     		mov	r1, r4	@, fc
 267 002c B847     		blx	r7	@ putf
 268              	.LVL26:
 269 002e 013D     		sub	r5, r5, #1	@ ivtmp.41,
 270 0030 F8E7     		b	.L20	@
 271              	.LVL27:
 272              	.L29:
 132:printf.c      **** 	while ((ch= *bf++))
 273              		.loc 1 132 0 discriminator 1
 274 0032 0698     		ldr	r0, [sp, #24]	@, bf
 275 0034 0178     		ldrb	r1, [r0]	@ ch, MEM[base: bf_3, offset: 0B]
 276              	.LVL28:
 277 0036 0130     		add	r0, r0, #1	@,
 278 0038 0690     		str	r0, [sp, #24]	@, bf
 279              	.LVL29:
 280 003a 0029     		cmp	r1, #0	@ ch,
 281 003c 02D0     		beq	.L31	@,
 282              	.L25:
 133:printf.c      **** 		putf(putp,ch);
 283              		.loc 1 133 0
 284 003e 301C     		mov	r0, r6	@, putp
 285              	.LVL30:
 286 0040 B847     		blx	r7	@ putf
 287              	.LVL31:
 288 0042 F6E7     		b	.L29	@
 289              	.LVL32:
 290              	.L31:
 291              	.LBE8:
 134:printf.c      **** 	}
 292              		.loc 1 134 0
 293              		@ sp needed for prologue	@
 294              	.LVL33:
 295              	.LVL34:
 296              	.LVL35:
 297 0044 F8BD     		pop	{r3, r4, r5, r6, r7, pc}
 298              		.cfi_endproc
 299              	.LFE4:
 300              		.size	_ZL6putchwPvPFvS_cEicPc, .-_ZL6putchwPvPFvS_cEicPc
 301              		.section	.text._ZL5putcpPvc,"ax",%progbits
 302              		.align	1
 303              		.code	16
 304              		.thumb_func
 305              		.type	_ZL5putcpPvc, %function
 306              	_ZL5putcpPvc:
 307              	.LFB8:
 135:printf.c      **** 
 136:printf.c      **** void tfp_format(void* putp,putcf putf,char *fmt, va_list va)
 137:printf.c      **** 	{
 138:printf.c      **** 	char bf[12];
 139:printf.c      ****     
 140:printf.c      **** 	char ch;
 141:printf.c      **** 
 142:printf.c      **** 
 143:printf.c      **** 	while ((ch=*(fmt++))) {
ARM GAS  /var/folders/wv/bpgj319905s5rl92drfwf9k40000gn/T//ccaqzwiJ.s 			page 9


 144:printf.c      **** 		if (ch!='%') 
 145:printf.c      **** 			putf(putp,ch);
 146:printf.c      **** 		else {
 147:printf.c      **** 			char lz=0;
 148:printf.c      **** #ifdef 	PRINTF_LONG_SUPPORT
 149:printf.c      **** 			char lng=0;
 150:printf.c      **** #endif
 151:printf.c      **** 			int w=0;
 152:printf.c      **** 			ch=*(fmt++);
 153:printf.c      **** 			if (ch=='0') {
 154:printf.c      **** 				ch=*(fmt++);
 155:printf.c      **** 				lz=1;
 156:printf.c      **** 				}
 157:printf.c      **** 			if (ch>='0' && ch<='9') {
 158:printf.c      **** 				ch=a2i(ch,&fmt,10,&w);
 159:printf.c      **** 				}
 160:printf.c      **** #ifdef 	PRINTF_LONG_SUPPORT
 161:printf.c      **** 			if (ch=='l') {
 162:printf.c      **** 				ch=*(fmt++);
 163:printf.c      **** 				lng=1;
 164:printf.c      **** 			}
 165:printf.c      **** #endif
 166:printf.c      **** 			switch (ch) {
 167:printf.c      **** 				case 0: 
 168:printf.c      **** 					goto abort;
 169:printf.c      **** 				case 'u' : {
 170:printf.c      **** #ifdef 	PRINTF_LONG_SUPPORT
 171:printf.c      **** 					if (lng)
 172:printf.c      **** 						uli2a(va_arg(va, unsigned long int),10,0,bf);
 173:printf.c      **** 					else
 174:printf.c      **** #endif
 175:printf.c      **** 					ui2a(va_arg(va, unsigned int),10,0,bf);
 176:printf.c      **** 					putchw(putp,putf,w,lz,bf);
 177:printf.c      **** 					break;
 178:printf.c      **** 					}
 179:printf.c      **** 				case 'd' :  {
 180:printf.c      **** #ifdef 	PRINTF_LONG_SUPPORT
 181:printf.c      **** 					if (lng)
 182:printf.c      **** 						li2a(va_arg(va, unsigned long int),bf);
 183:printf.c      **** 					else
 184:printf.c      **** #endif
 185:printf.c      **** 					i2a(va_arg(va, int),bf);
 186:printf.c      **** 					putchw(putp,putf,w,lz,bf);
 187:printf.c      **** 					break;
 188:printf.c      **** 					}
 189:printf.c      **** 				case 'x': case 'X' : 
 190:printf.c      **** #ifdef 	PRINTF_LONG_SUPPORT
 191:printf.c      **** 					if (lng)
 192:printf.c      **** 						uli2a(va_arg(va, unsigned long int),16,(ch=='X'),bf);
 193:printf.c      **** 					else
 194:printf.c      **** #endif
 195:printf.c      **** 					ui2a(va_arg(va, unsigned int),16,(ch=='X'),bf);
 196:printf.c      **** 					putchw(putp,putf,w,lz,bf);
 197:printf.c      **** 					break;
 198:printf.c      **** 				case 'c' : 
 199:printf.c      **** 					putf(putp,(char)(va_arg(va, int)));
 200:printf.c      **** 					break;
ARM GAS  /var/folders/wv/bpgj319905s5rl92drfwf9k40000gn/T//ccaqzwiJ.s 			page 10


 201:printf.c      **** 				case 's' : 
 202:printf.c      **** 					putchw(putp,putf,w,0,va_arg(va, char*));
 203:printf.c      **** 					break;
 204:printf.c      **** 				case '%' :
 205:printf.c      **** 					putf(putp,ch);
 206:printf.c      **** 				default:
 207:printf.c      **** 					break;
 208:printf.c      **** 				}
 209:printf.c      **** 			}
 210:printf.c      **** 		}
 211:printf.c      **** 	abort:;
 212:printf.c      **** 	}
 213:printf.c      **** 
 214:printf.c      **** 
 215:printf.c      **** void init_printf(void* putp,void (*putf) (void*,char))
 216:printf.c      **** 	{
 217:printf.c      **** 	stdout_putf=putf;
 218:printf.c      **** 	stdout_putp=putp;
 219:printf.c      **** 	}
 220:printf.c      **** 
 221:printf.c      **** void tfp_printf(char *fmt, ...)
 222:printf.c      **** 	{
 223:printf.c      **** 	va_list va;
 224:printf.c      **** 	va_start(va,fmt);
 225:printf.c      **** 	tfp_format(stdout_putp,stdout_putf,fmt,va);
 226:printf.c      **** 	va_end(va);
 227:printf.c      **** 	}
 228:printf.c      **** 
 229:printf.c      **** static void putcp(void* p,char c)
 230:printf.c      **** 	{
 308              		.loc 1 230 0
 309              		.cfi_startproc
 310              	.LVL36:
 231:printf.c      **** 	*(*((char**)p))++ = c;
 311              		.loc 1 231 0
 312 0000 0368     		ldr	r3, [r0]	@ D.4635, MEM[(char * *)p_1(D)]
 232:printf.c      **** 	}
 313              		.loc 1 232 0
 314              		@ sp needed for prologue	@
 231:printf.c      **** 	*(*((char**)p))++ = c;
 315              		.loc 1 231 0
 316 0002 1970     		strb	r1, [r3]	@ c, *D.4635_2
 317 0004 0133     		add	r3, r3, #1	@ tmp139,
 318 0006 0360     		str	r3, [r0]	@ tmp139, MEM[(char * *)p_1(D)]
 319              		.loc 1 232 0
 320 0008 7047     		bx	lr
 321              		.cfi_endproc
 322              	.LFE8:
 323              		.size	_ZL5putcpPvc, .-_ZL5putcpPvc
 324              		.section	.text._Z10tfp_formatPvPFvS_cEPcSt9__va_list,"ax",%progbits
 325              		.align	1
 326              		.global	_Z10tfp_formatPvPFvS_cEPcSt9__va_list
 327              		.code	16
 328              		.thumb_func
 329              		.type	_Z10tfp_formatPvPFvS_cEPcSt9__va_list, %function
 330              	_Z10tfp_formatPvPFvS_cEPcSt9__va_list:
 331              	.LFB5:
ARM GAS  /var/folders/wv/bpgj319905s5rl92drfwf9k40000gn/T//ccaqzwiJ.s 			page 11


 137:printf.c      **** 	{
 332              		.loc 1 137 0
 333              		.cfi_startproc
 334              	.LVL37:
 335 0000 F0B5     		push	{r4, r5, r6, r7, lr}	@
 336              	.LCFI3:
 337              		.cfi_def_cfa_offset 20
 338              		.cfi_offset 4, -20
 339              		.cfi_offset 5, -16
 340              		.cfi_offset 6, -12
 341              		.cfi_offset 7, -8
 342              		.cfi_offset 14, -4
 343 0002 8BB0     		sub	sp, sp, #44	@,,
 344              	.LCFI4:
 345              		.cfi_def_cfa_offset 64
 346 0004 061C     		mov	r6, r0	@ putp, putp
 347 0006 0391     		str	r1, [sp, #12]	@ putf, %sfp
 348 0008 151C     		mov	r5, r2	@ fmt, fmt
 349 000a 1C1C     		mov	r4, r3	@ va$__ap, va
 350              	.LVL38:
 351              	.L67:
 352              	.LBB19:
 143:printf.c      **** 	while ((ch=*(fmt++))) {
 353              		.loc 1 143 0 discriminator 1
 354 000c 2978     		ldrb	r1, [r5]	@ ch, *fmt_100
 355              	.LVL39:
 356 000e 0029     		cmp	r1, #0	@ ch,
 357 0010 7DD0     		beq	.L33	@,
 358              	.L55:
 359              	.LBB20:
 144:printf.c      **** 		if (ch!='%') 
 360              		.loc 1 144 0
 361 0012 2529     		cmp	r1, #37	@ ch,
 362 0014 01D0     		beq	.L35	@,
 363              	.LBE20:
 143:printf.c      **** 	while ((ch=*(fmt++))) {
 364              		.loc 1 143 0
 365 0016 0135     		add	r5, r5, #1	@ fmt,
 366              	.LVL40:
 367 0018 75E0     		b	.L46	@
 368              	.LVL41:
 369              	.L35:
 370              	.LBB31:
 371              	.LBB21:
 152:printf.c      **** 			ch=*(fmt++);
 372              		.loc 1 152 0
 373 001a 6978     		ldrb	r1, [r5, #1]	@ ch, MEM[(char *)fmt_100 + 1B]
 374              	.LVL42:
 153:printf.c      **** 			if (ch=='0') {
 375              		.loc 1 153 0
 376 001c 3029     		cmp	r1, #48	@ ch,
 377 001e 02D0     		beq	.L37	@,
 152:printf.c      **** 			ch=*(fmt++);
 378              		.loc 1 152 0
 379 0020 0235     		add	r5, r5, #2	@ fmt,
 380              	.LVL43:
 147:printf.c      **** 			char lz=0;
ARM GAS  /var/folders/wv/bpgj319905s5rl92drfwf9k40000gn/T//ccaqzwiJ.s 			page 12


 381              		.loc 1 147 0
 382 0022 0023     		mov	r3, #0	@,
 383              	.LVL44:
 384 0024 02E0     		b	.L68	@
 385              	.LVL45:
 386              	.L37:
 154:printf.c      **** 				ch=*(fmt++);
 387              		.loc 1 154 0
 388 0026 A978     		ldrb	r1, [r5, #2]	@ ch, MEM[(char *)fmt_100 + 2B]
 389              	.LVL46:
 155:printf.c      **** 				lz=1;
 390              		.loc 1 155 0
 391 0028 0123     		mov	r3, #1	@,
 392              	.LVL47:
 154:printf.c      **** 				ch=*(fmt++);
 393              		.loc 1 154 0
 394 002a 0335     		add	r5, r5, #3	@ fmt,
 395              	.LVL48:
 396              	.L68:
 157:printf.c      **** 			if (ch>='0' && ch<='9') {
 397              		.loc 1 157 0
 398 002c 081C     		mov	r0, r1	@ tmp169, ch
 399 002e 3038     		sub	r0, r0, #48	@ tmp169,
 155:printf.c      **** 				lz=1;
 400              		.loc 1 155 0
 401 0030 0593     		str	r3, [sp, #20]	@, %sfp
 402              	.LVL49:
 157:printf.c      **** 			if (ch>='0' && ch<='9') {
 403              		.loc 1 157 0
 404 0032 0027     		mov	r7, #0	@ w,
 405 0034 0928     		cmp	r0, #9	@ tmp169,
 406 0036 14D8     		bhi	.L40	@,
 407              	.LVL50:
 408              	.L39:
 409              	.LBB22:
 410              	.LBB23:
 411              	.LBB24:
 412              	.LBB25:
 413              	.LBB26:
  99:printf.c      **** 	if (ch>='0' && ch<='9') 
 414              		.loc 1 99 0
 415 0038 0B1C     		mov	r3, r1	@ tmp171, ch
 416 003a 303B     		sub	r3, r3, #48	@ tmp171,
 417 003c DAB2     		uxtb	r2, r3	@ tmp172, tmp171
 418 003e 092A     		cmp	r2, #9	@ tmp172,
 419 0040 05D8     		bhi	.L72	@,
 420              	.L42:
 421              	.LBE26:
 422              	.LBE25:
 115:printf.c      **** 		num=num*base+digit;
 423              		.loc 1 115 0
 424 0042 0A21     		mov	r1, #10	@ tmp170,
 425              	.LVL51:
 426 0044 7943     		mul	r1, r7	@ D.4836, w
 427 0046 CF18     		add	r7, r1, r3	@ w, D.4836, digit
 428              	.LVL52:
 116:printf.c      **** 		ch=*p++;
ARM GAS  /var/folders/wv/bpgj319905s5rl92drfwf9k40000gn/T//ccaqzwiJ.s 			page 13


 429              		.loc 1 116 0
 430 0048 2978     		ldrb	r1, [r5]	@ ch, MEM[base: fmt_78, offset: 0B]
 431              	.LVL53:
 432 004a 0135     		add	r5, r5, #1	@ fmt,
 433              	.LVL54:
 434 004c F4E7     		b	.L39	@
 435              	.LVL55:
 436              	.L72:
 437              	.LBB28:
 438              	.LBB27:
 101:printf.c      **** 	else if (ch>='a' && ch<='f')
 439              		.loc 1 101 0
 440 004e 313B     		sub	r3, r3, #49	@ tmp174,
 441 0050 052B     		cmp	r3, #5	@ tmp174,
 442 0052 03D9     		bls	.L70	@,
 443              	.L43:
 103:printf.c      **** 	else if (ch>='A' && ch<='F')
 444              		.loc 1 103 0
 445 0054 0B1C     		mov	r3, r1	@ tmp176, ch
 446 0056 413B     		sub	r3, r3, #65	@ tmp176,
 447 0058 052B     		cmp	r3, #5	@ tmp176,
 448 005a 02D8     		bhi	.L40	@,
 449              	.L70:
 450              	.L45:
 104:printf.c      **** 		return ch-'A'+10;
 451              		.loc 1 104 0
 452 005c 0A33     		add	r3, r3, #10	@ digit,
 453              	.LBE27:
 454              	.LBE28:
 114:printf.c      **** 		if (digit>base) break;
 455              		.loc 1 114 0
 456 005e 0A2B     		cmp	r3, #10	@ digit,
 457 0060 EFDD     		ble	.L42	@,
 458              	.LVL56:
 459              	.L40:
 460              	.LBE24:
 461              	.LBE23:
 462              	.LBE22:
 166:printf.c      **** 			switch (ch) {
 463              		.loc 1 166 0
 464 0062 6429     		cmp	r1, #100	@ ch,
 465 0064 2AD0     		beq	.L49	@,
 466 0066 10D8     		bhi	.L52	@,
 467 0068 5829     		cmp	r1, #88	@ ch,
 468 006a 3FD0     		beq	.L47	@,
 469 006c 04D8     		bhi	.L53	@,
 470 006e 0029     		cmp	r1, #0	@ ch,
 471 0070 4DD0     		beq	.L33	@,
 472 0072 2529     		cmp	r1, #37	@ ch,
 473 0074 CAD1     		bne	.L67	@,
 474 0076 46E0     		b	.L46	@
 475              	.L53:
 476 0078 6329     		cmp	r1, #99	@ ch,
 477 007a C7D1     		bne	.L67	@,
 199:printf.c      **** 					putf(putp,(char)(va_arg(va, int)));
 478              		.loc 1 199 0
 479 007c 271D     		add	r7, r4, #4	@ va$__ap, va$__ap,
ARM GAS  /var/folders/wv/bpgj319905s5rl92drfwf9k40000gn/T//ccaqzwiJ.s 			page 14


 480              	.LVL57:
 481 007e 2178     		ldrb	r1, [r4]	@ MEM[(int *)va$__ap_64], MEM[(int *)va$__ap_64]
 482              	.LVL58:
 483 0080 301C     		mov	r0, r6	@, putp
 484 0082 039C     		ldr	r4, [sp, #12]	@, %sfp
 485 0084 A047     		blx	r4	@
 486              	.LVL59:
 487 0086 3C1C     		mov	r4, r7	@ va$__ap, va$__ap
 200:printf.c      **** 					break;
 488              		.loc 1 200 0
 489 0088 C0E7     		b	.L67	@
 490              	.LVL60:
 491              	.L52:
 166:printf.c      **** 			switch (ch) {
 492              		.loc 1 166 0
 493 008a 7529     		cmp	r1, #117	@ ch,
 494 008c 0FD0     		beq	.L51	@,
 495 008e 7829     		cmp	r1, #120	@ ch,
 496 0090 2CD0     		beq	.L47	@,
 497 0092 7329     		cmp	r1, #115	@ ch,
 498 0094 BAD1     		bne	.L67	@,
 202:printf.c      **** 					putchw(putp,putf,w,0,va_arg(va, char*));
 499              		.loc 1 202 0
 500 0096 2068     		ldr	r0, [r4]	@, MEM[(char * *)va$__ap_64]
 501 0098 211D     		add	r1, r4, #4	@, va$__ap,
 502              	.LVL61:
 503 009a 0591     		str	r1, [sp, #20]	@, %sfp
 504              	.LVL62:
 505 009c 0090     		str	r0, [sp]	@,
 506 009e 0399     		ldr	r1, [sp, #12]	@, %sfp
 507              	.LVL63:
 508 00a0 301C     		mov	r0, r6	@, putp
 509 00a2 3A1C     		mov	r2, r7	@, w
 510 00a4 0023     		mov	r3, #0	@,
 511 00a6 FFF7FEFF 		bl	_ZL6putchwPvPFvS_cEicPc	@
 512              	.LVL64:
 513 00aa 059C     		ldr	r4, [sp, #20]	@ va$__ap, %sfp
 203:printf.c      **** 					break;
 514              		.loc 1 203 0
 515 00ac AEE7     		b	.L67	@
 516              	.LVL65:
 517              	.L51:
 175:printf.c      **** 					ui2a(va_arg(va, unsigned int),10,0,bf);
 518              		.loc 1 175 0
 519 00ae 231D     		add	r3, r4, #4	@, va$__ap,
 520 00b0 2068     		ldr	r0, [r4]	@ MEM[(unsigned int *)va$__ap_64], MEM[(unsigned int *)va$__ap_64]
 521 00b2 0493     		str	r3, [sp, #16]	@, %sfp
 522              	.LVL66:
 523 00b4 07AC     		add	r4, sp, #28	@ tmp178,,
 524 00b6 0A21     		mov	r1, #10	@,
 525              	.LVL67:
 526 00b8 0022     		mov	r2, #0	@,
 527 00ba 1FE0     		b	.L71	@
 528              	.LVL68:
 529              	.L49:
 185:printf.c      **** 					i2a(va_arg(va, int),bf);
 530              		.loc 1 185 0
ARM GAS  /var/folders/wv/bpgj319905s5rl92drfwf9k40000gn/T//ccaqzwiJ.s 			page 15


 531 00bc 2068     		ldr	r0, [r4]	@ num, MEM[(int *)va$__ap_64]
 532 00be 211D     		add	r1, r4, #4	@, va$__ap,
 533              	.LVL69:
 534 00c0 0491     		str	r1, [sp, #16]	@, %sfp
 535              	.LVL70:
 536 00c2 07AB     		add	r3, sp, #28	@ bf,,
 537              	.LVL71:
 538              	.LBB29:
 539              	.LBB30:
  90:printf.c      **** 	if (num<0) {
 540              		.loc 1 90 0
 541 00c4 0028     		cmp	r0, #0	@ num,
 542 00c6 03DA     		bge	.L54	@,
  92:printf.c      **** 		*bf++ = '-';
 543              		.loc 1 92 0
 544 00c8 2D22     		mov	r2, #45	@ tmp181,
 545 00ca 1A70     		strb	r2, [r3]	@ tmp181, MEM[(char *)&bf]
  91:printf.c      **** 		num=-num;
 546              		.loc 1 91 0
 547 00cc 4042     		neg	r0, r0	@ num, num
 548              	.LVL72:
  92:printf.c      **** 		*bf++ = '-';
 549              		.loc 1 92 0
 550 00ce 0133     		add	r3, r3, #1	@ bf,
 551              	.LVL73:
 552              	.L54:
  94:printf.c      **** 	ui2a(num,10,0,bf);
 553              		.loc 1 94 0
 554 00d0 0A21     		mov	r1, #10	@,
 555              	.LVL74:
 556 00d2 0022     		mov	r2, #0	@,
 557 00d4 FFF7FEFF 		bl	_ZL4ui2ajjiPc	@
 558              	.LVL75:
 559              	.LBE30:
 560              	.LBE29:
 186:printf.c      **** 					putchw(putp,putf,w,lz,bf);
 561              		.loc 1 186 0
 562 00d8 07A8     		add	r0, sp, #28	@ tmp183,,
 563 00da 0090     		str	r0, [sp]	@ tmp183,
 564              	.L69:
 565 00dc 301C     		mov	r0, r6	@, putp
 566 00de 0399     		ldr	r1, [sp, #12]	@, %sfp
 567 00e0 3A1C     		mov	r2, r7	@, w
 568 00e2 059B     		ldr	r3, [sp, #20]	@, %sfp
 569 00e4 FFF7FEFF 		bl	_ZL6putchwPvPFvS_cEicPc	@
 570              	.LVL76:
 185:printf.c      **** 					i2a(va_arg(va, int),bf);
 571              		.loc 1 185 0
 572 00e8 049C     		ldr	r4, [sp, #16]	@ va$__ap, %sfp
 187:printf.c      **** 					break;
 573              		.loc 1 187 0
 574 00ea 8FE7     		b	.L67	@
 575              	.LVL77:
 576              	.L47:
 195:printf.c      **** 					ui2a(va_arg(va, unsigned int),16,(ch=='X'),bf);
 577              		.loc 1 195 0
 578 00ec 221D     		add	r2, r4, #4	@, va$__ap,
ARM GAS  /var/folders/wv/bpgj319905s5rl92drfwf9k40000gn/T//ccaqzwiJ.s 			page 16


 579 00ee 5839     		sub	r1, r1, #88	@ tmp187,
 580              	.LVL78:
 581 00f0 0492     		str	r2, [sp, #16]	@, %sfp
 582              	.LVL79:
 583 00f2 2068     		ldr	r0, [r4]	@ MEM[(unsigned int *)va$__ap_64], MEM[(unsigned int *)va$__ap_64]
 584 00f4 4A42     		neg	r2, r1	@ tmp186, tmp187
 585 00f6 4A41     		adc	r2, r2, r1	@ tmp186, tmp187
 586              	.LVL80:
 587 00f8 07AC     		add	r4, sp, #28	@ tmp189,,
 588 00fa 1021     		mov	r1, #16	@,
 589              	.L71:
 590 00fc 231C     		mov	r3, r4	@, tmp189
 591 00fe FFF7FEFF 		bl	_ZL4ui2ajjiPc	@
 592              	.LVL81:
 196:printf.c      **** 					putchw(putp,putf,w,lz,bf);
 593              		.loc 1 196 0
 594 0102 0094     		str	r4, [sp]	@ tmp189,
 595 0104 EAE7     		b	.L69	@
 596              	.LVL82:
 597              	.L46:
 205:printf.c      **** 					putf(putp,ch);
 598              		.loc 1 205 0
 599 0106 301C     		mov	r0, r6	@, putp
 600 0108 039B     		ldr	r3, [sp, #12]	@, %sfp
 601              	.LVL83:
 602 010a 9847     		blx	r3	@
 603              	.LVL84:
 604 010c 7EE7     		b	.L67	@
 605              	.LVL85:
 606              	.L33:
 607              	.LBE21:
 608              	.LBE31:
 609              	.LBE19:
 212:printf.c      **** 	}
 610              		.loc 1 212 0
 611 010e 0BB0     		add	sp, sp, #44	@,,
 612              		@ sp needed for prologue	@
 613              	.LVL86:
 614              	.LVL87:
 615 0110 F0BD     		pop	{r4, r5, r6, r7, pc}
 616              		.cfi_endproc
 617              	.LFE5:
 618              		.size	_Z10tfp_formatPvPFvS_cEPcSt9__va_list, .-_Z10tfp_formatPvPFvS_cEPcSt9__va_list
 619              		.section	.text._Z11init_printfPvPFvS_cE,"ax",%progbits
 620              		.align	1
 621              		.global	_Z11init_printfPvPFvS_cE
 622              		.code	16
 623              		.thumb_func
 624              		.type	_Z11init_printfPvPFvS_cE, %function
 625              	_Z11init_printfPvPFvS_cE:
 626              	.LFB6:
 216:printf.c      **** 	{
 627              		.loc 1 216 0
 628              		.cfi_startproc
 629              	.LVL88:
 217:printf.c      **** 	stdout_putf=putf;
 630              		.loc 1 217 0
ARM GAS  /var/folders/wv/bpgj319905s5rl92drfwf9k40000gn/T//ccaqzwiJ.s 			page 17


 631 0000 024B     		ldr	r3, .L74	@ tmp136,
 219:printf.c      **** 	}
 632              		.loc 1 219 0
 633              		@ sp needed for prologue	@
 217:printf.c      **** 	stdout_putf=putf;
 634              		.loc 1 217 0
 635 0002 1960     		str	r1, [r3]	@ putf, stdout_putf
 218:printf.c      **** 	stdout_putp=putp;
 636              		.loc 1 218 0
 637 0004 0249     		ldr	r1, .L74+4	@ tmp137,
 638              	.LVL89:
 639 0006 0860     		str	r0, [r1]	@ putp, stdout_putp
 219:printf.c      **** 	}
 640              		.loc 1 219 0
 641 0008 7047     		bx	lr
 642              	.L75:
 643 000a C046     		.align	2
 644              	.L74:
 645 000c 00000000 		.word	.LANCHOR0
 646 0010 00000000 		.word	.LANCHOR1
 647              		.cfi_endproc
 648              	.LFE6:
 649              		.size	_Z11init_printfPvPFvS_cE, .-_Z11init_printfPvPFvS_cE
 650              		.section	.text._Z10tfp_printfPcz,"ax",%progbits
 651              		.align	1
 652              		.global	_Z10tfp_printfPcz
 653              		.code	16
 654              		.thumb_func
 655              		.type	_Z10tfp_printfPcz, %function
 656              	_Z10tfp_printfPcz:
 657              	.LFB7:
 222:printf.c      **** 	{
 658              		.loc 1 222 0
 659              		.cfi_startproc
 660              	.LVL90:
 661 0000 0FB4     		push	{r0, r1, r2, r3}	@
 662              	.LCFI5:
 663              		.cfi_def_cfa_offset 16
 664 0002 07B5     		push	{r0, r1, r2, lr}	@
 665              	.LCFI6:
 666              		.cfi_def_cfa_offset 32
 667              		.cfi_offset 0, -32
 668              		.cfi_offset 1, -28
 669              		.cfi_offset 2, -24
 670              		.cfi_offset 14, -20
 222:printf.c      **** 	{
 671              		.loc 1 222 0
 672 0004 04AB     		add	r3, sp, #16	@ tmp137,,
 673 0006 04CB     		ldmia	r3!, {r2}	@ fmt,
 674              	.LBB32:
 225:printf.c      **** 	tfp_format(stdout_putp,stdout_putf,fmt,va);
 675              		.loc 1 225 0
 676 0008 0549     		ldr	r1, .L77	@ tmp140,
 677 000a 064A     		ldr	r2, .L77+4	@ tmp138,
 678 000c 0968     		ldr	r1, [r1]	@ stdout_putf, stdout_putf
 679 000e 1068     		ldr	r0, [r2]	@ stdout_putp, stdout_putp
 680 0010 049A     		ldr	r2, [sp, #16]	@, fmt
ARM GAS  /var/folders/wv/bpgj319905s5rl92drfwf9k40000gn/T//ccaqzwiJ.s 			page 18


 224:printf.c      **** 	va_start(va,fmt);
 681              		.loc 1 224 0
 682 0012 0193     		str	r3, [sp, #4]	@ tmp137, MEM[(struct  *)&va].__ap
 225:printf.c      **** 	tfp_format(stdout_putp,stdout_putf,fmt,va);
 683              		.loc 1 225 0
 684 0014 FFF7FEFF 		bl	_Z10tfp_formatPvPFvS_cEPcSt9__va_list	@
 685              	.LVL91:
 686              	.LBE32:
 227:printf.c      **** 	}
 687              		.loc 1 227 0
 688 0018 03B0     		add	sp, sp, #12	@,,
 689              		@ sp needed for prologue	@
 690 001a 08BC     		pop	{r3}
 691 001c 04B0     		add	sp, sp, #16
 692 001e 1847     		bx	r3
 693              	.L78:
 694              		.align	2
 695              	.L77:
 696 0020 00000000 		.word	.LANCHOR0
 697 0024 00000000 		.word	.LANCHOR1
 698              		.cfi_endproc
 699              	.LFE7:
 700              		.size	_Z10tfp_printfPcz, .-_Z10tfp_printfPcz
 701              		.section	.text._Z11tfp_sprintfPcS_z,"ax",%progbits
 702              		.align	1
 703              		.global	_Z11tfp_sprintfPcS_z
 704              		.code	16
 705              		.thumb_func
 706              		.type	_Z11tfp_sprintfPcS_z, %function
 707              	_Z11tfp_sprintfPcS_z:
 708              	.LFB9:
 233:printf.c      **** 
 234:printf.c      **** 
 235:printf.c      **** 
 236:printf.c      **** void tfp_sprintf(char* s,char *fmt, ...)
 237:printf.c      **** 	{
 709              		.loc 1 237 0
 710              		.cfi_startproc
 711              	.LVL92:
 712 0000 0EB4     		push	{r1, r2, r3}	@
 713              	.LCFI7:
 714              		.cfi_def_cfa_offset 12
 715 0002 0FB5     		push	{r0, r1, r2, r3, lr}	@
 716              	.LCFI8:
 717              		.cfi_def_cfa_offset 32
 718              		.cfi_offset 0, -32
 719              		.cfi_offset 1, -28
 720              		.cfi_offset 2, -24
 721              		.cfi_offset 3, -20
 722              		.cfi_offset 14, -16
 723              		.loc 1 237 0
 724 0004 05AB     		add	r3, sp, #20	@ tmp136,,
 725 0006 04CB     		ldmia	r3!, {r2}	@ fmt,
 726 0008 0190     		str	r0, [sp, #4]	@ s, s
 727              	.LBB33:
 238:printf.c      **** 	va_list va;
 239:printf.c      **** 	va_start(va,fmt);
ARM GAS  /var/folders/wv/bpgj319905s5rl92drfwf9k40000gn/T//ccaqzwiJ.s 			page 19


 240:printf.c      **** 	tfp_format(&s,putcp,fmt,va);
 728              		.loc 1 240 0
 729 000a 0649     		ldr	r1, .L80	@,
 730 000c 01A8     		add	r0, sp, #4	@,,
 731              	.LVL93:
 239:printf.c      **** 	va_start(va,fmt);
 732              		.loc 1 239 0
 733 000e 0393     		str	r3, [sp, #12]	@ tmp136, MEM[(struct  *)&va].__ap
 734              		.loc 1 240 0
 735 0010 FFF7FEFF 		bl	_Z10tfp_formatPvPFvS_cEPcSt9__va_list	@
 736              	.LVL94:
 737              	.LBB34:
 738              	.LBB35:
 231:printf.c      **** 	*(*((char**)p))++ = c;
 739              		.loc 1 231 0
 740 0014 019A     		ldr	r2, [sp, #4]	@, s
 741 0016 0023     		mov	r3, #0	@ tmp140,
 742 0018 1370     		strb	r3, [r2]	@ tmp140, *D.4773_8
 743              	.LBE35:
 744              	.LBE34:
 745              	.LBE33:
 241:printf.c      **** 	putcp(&s,0);
 242:printf.c      **** 	va_end(va);
 243:printf.c      **** 	}
 746              		.loc 1 243 0
 747 001a 04B0     		add	sp, sp, #16	@,,
 748              		@ sp needed for prologue	@
 749 001c 08BC     		pop	{r3}
 750 001e 03B0     		add	sp, sp, #12
 751 0020 1847     		bx	r3
 752              	.L81:
 753 0022 C046     		.align	2
 754              	.L80:
 755 0024 00000000 		.word	_ZL5putcpPvc
 756              		.cfi_endproc
 757              	.LFE9:
 758              		.size	_Z11tfp_sprintfPcS_z, .-_Z11tfp_sprintfPcS_z
 759              		.section	.bss._ZL11stdout_putp,"aw",%nobits
 760              		.align	2
 761              		.set	.LANCHOR1,. + 0
 762              		.type	_ZL11stdout_putp, %object
 763              		.size	_ZL11stdout_putp, 4
 764              	_ZL11stdout_putp:
 765 0000 00000000 		.space	4
 766              		.section	.bss._ZL11stdout_putf,"aw",%nobits
 767              		.align	2
 768              		.set	.LANCHOR0,. + 0
 769              		.type	_ZL11stdout_putf, %object
 770              		.size	_ZL11stdout_putf, 4
 771              	_ZL11stdout_putf:
 772 0000 00000000 		.space	4
 773              		.text
 774              	.Letext0:
 775              		.file 2 "/Users/stevenparker/toolchains/gcc-arm-none-eabi-4_7-2013q2/bin/../lib/gcc/arm-none-eabi/
 776              		.file 3 "<built-in>"