ARM GAS  /var/folders/wv/bpgj319905s5rl92drfwf9k40000gn/T//cckIYs0L.s 			page 1


   1              		.cpu cortex-m0
   2              		.fpu softvfp
   3              		.eabi_attribute 20, 1	@ Tag_ABI_FP_denormal
   4              		.eabi_attribute 21, 1	@ Tag_ABI_FP_exceptions
   5              		.eabi_attribute 23, 3	@ Tag_ABI_FP_number_model
   6              		.eabi_attribute 24, 1	@ Tag_ABI_align8_needed
   7              		.eabi_attribute 25, 1	@ Tag_ABI_align8_preserved
   8              		.eabi_attribute 26, 1	@ Tag_ABI_enum_size
   9              		.eabi_attribute 30, 4	@ Tag_ABI_optimization_goals
  10              		.eabi_attribute 34, 0	@ Tag_CPU_unaligned_access
  11              		.eabi_attribute 18, 4	@ Tag_ABI_PCS_wchar_t
  12              		.file	"wiring.c"
  13              	@ GNU C++ (GNU Tools for ARM Embedded Processors) version 4.7.4 20130613 (release) [ARM/embedded-4_
  14              	@	compiled by GNU C version 4.2.1 (Based on Apple Inc. build 5658) (LLVM build 2336.9.00), GMP vers
  15              	@ GGC heuristics: --param ggc-min-expand=100 --param ggc-min-heapsize=131072
  16              	@ options passed:  -I . -imultilib armv6-m
  17              	@ -iprefix /Users/stevenparker/toolchains/gcc-arm-none-eabi-4_7-2013q2/bin/../lib/gcc/arm-none-eabi
  18              	@ -isysroot /Users/stevenparker/toolchains/gcc-arm-none-eabi-4_7-2013q2/bin/../arm-none-eabi
  19              	@ -MD out/wiring.d -MF out/wiring.d -MP -MQ out/wiring.o
  20              	@ -D__USES_INITFINI__ wiring.c -mcpu=cortex-m0 -mthumb
  21              	@ -auxbase-strip out/wiring.o -g -ggdb3 -Os -Wall -Wextra -std=gnu++98
  22              	@ -ffunction-sections -fdata-sections -fno-rtti -fno-exceptions
  23              	@ -fverbose-asm
  24              	@ options enabled:  -fauto-inc-dec -fbranch-count-reg -fcaller-saves
  25              	@ -fcombine-stack-adjustments -fcommon -fcompare-elim -fcprop-registers
  26              	@ -fcrossjumping -fcse-follow-jumps -fdata-sections -fdebug-types-section
  27              	@ -fdefer-pop -fdelete-null-pointer-checks -fdevirtualize -fdwarf2-cfi-asm
  28              	@ -fearly-inlining -feliminate-unused-debug-types -fexpensive-optimizations
  29              	@ -fforward-propagate -ffunction-cse -ffunction-sections -fgcse -fgcse-lm
  30              	@ -fgnu-runtime -fguess-branch-probability -fident -fif-conversion
  31              	@ -fif-conversion2 -findirect-inlining -finline -finline-atomics
  32              	@ -finline-functions -finline-functions-called-once
  33              	@ -finline-small-functions -fipa-cp -fipa-profile -fipa-pure-const
  34              	@ -fipa-reference -fipa-sra -fira-hoist-pressure -fira-share-save-slots
  35              	@ -fira-share-spill-slots -fivopts -fkeep-static-consts
  36              	@ -fleading-underscore -fmath-errno -fmerge-constants -fmerge-debug-strings
  37              	@ -fomit-frame-pointer -foptimize-register-move -foptimize-sibling-calls
  38              	@ -fpartial-inlining -fpeephole -fpeephole2 -fprefetch-loop-arrays
  39              	@ -freg-struct-return -fregmove -frename-registers -freorder-blocks
  40              	@ -freorder-functions -frerun-cse-after-loop
  41              	@ -fsched-critical-path-heuristic -fsched-dep-count-heuristic
  42              	@ -fsched-group-heuristic -fsched-interblock -fsched-last-insn-heuristic
  43              	@ -fsched-rank-heuristic -fsched-spec -fsched-spec-insn-heuristic
  44              	@ -fsched-stalled-insns-dep -fschedule-insns2 -fsection-anchors
  45              	@ -fshow-column -fshrink-wrap -fsigned-zeros -fsplit-ivs-in-unroller
  46              	@ -fsplit-wide-types -fstrict-aliasing -fstrict-overflow
  47              	@ -fstrict-volatile-bitfields -fthread-jumps -ftoplevel-reorder
  48              	@ -ftrapping-math -ftree-bit-ccp -ftree-builtin-call-dce -ftree-ccp
  49              	@ -ftree-ch -ftree-copy-prop -ftree-copyrename -ftree-cselim -ftree-dce
  50              	@ -ftree-dominator-opts -ftree-dse -ftree-forwprop -ftree-fre
  51              	@ -ftree-loop-if-convert -ftree-loop-im -ftree-loop-ivcanon
  52              	@ -ftree-loop-optimize -ftree-parallelize-loops= -ftree-phiprop -ftree-pre
  53              	@ -ftree-pta -ftree-reassoc -ftree-scev-cprop -ftree-sink
  54              	@ -ftree-slp-vectorize -ftree-sra -ftree-switch-conversion
  55              	@ -ftree-tail-merge -ftree-ter -ftree-vect-loop-version -ftree-vrp
  56              	@ -funit-at-a-time -funroll-loops -fvar-tracking -fvar-tracking-assignments
  57              	@ -fverbose-asm -fweb -fzero-initialized-in-bss -mlittle-endian
ARM GAS  /var/folders/wv/bpgj319905s5rl92drfwf9k40000gn/T//cckIYs0L.s 			page 2


  58              	@ -msched-prolog -mthumb -mvectorize-with-neon-quad
  59              	
  60              		.text
  61              	.Ltext0:
  62              		.cfi_sections	.debug_frame
  63              		.section	.text._Z15TIMER0_OVF_vectv,"ax",%progbits
  64              		.align	1
  65              		.global	_Z15TIMER0_OVF_vectv
  66              		.code	16
  67              		.thumb_func
  68              		.type	_Z15TIMER0_OVF_vectv, %function
  69              	_Z15TIMER0_OVF_vectv:
  70              	.LFB0:
  71              		.file 1 "wiring.c"
   1:wiring.c      **** /*
   2:wiring.c      ****   wiring.c - Partial implementation of the Wiring API for the ATmega8.
   3:wiring.c      ****   Part of Arduino - http://www.arduino.cc/
   4:wiring.c      **** 
   5:wiring.c      ****   Copyright (c) 2005-2006 David A. Mellis
   6:wiring.c      **** 
   7:wiring.c      ****   This library is free software; you can redistribute it and/or
   8:wiring.c      ****   modify it under the terms of the GNU Lesser General Public
   9:wiring.c      ****   License as published by the Free Software Foundation; either
  10:wiring.c      ****   version 2.1 of the License, or (at your option) any later version.
  11:wiring.c      **** 
  12:wiring.c      ****   This library is distributed in the hope that it will be useful,
  13:wiring.c      ****   but WITHOUT ANY WARRANTY; without even the implied warranty of
  14:wiring.c      ****   MERCHANTABILITY or FITNESS FOR A PARTICULAR PURPOSE.  See the GNU
  15:wiring.c      ****   Lesser General Public License for more details.
  16:wiring.c      **** 
  17:wiring.c      ****   You should have received a copy of the GNU Lesser General
  18:wiring.c      ****   Public License along with this library; if not, write to the
  19:wiring.c      ****   Free Software Foundation, Inc., 59 Temple Place, Suite 330,
  20:wiring.c      ****   Boston, MA  02111-1307  USA
  21:wiring.c      **** 
  22:wiring.c      ****   $Id$
  23:wiring.c      **** */
  24:wiring.c      **** 
  25:wiring.c      **** #include "wiring_private.h"
  26:wiring.c      **** #include <stdio.h>
  27:wiring.c      **** 
  28:wiring.c      **** // the prescaler is set so that timer0 ticks every 48 clock cycles, and the
  29:wiring.c      **** // the overflow handler is called every 1000 ticks.
  30:wiring.c      **** #define MICROSECONDS_PER_TIMER0_OVERFLOW (clockCyclesToMicroseconds(48 * 1000))
  31:wiring.c      **** 
  32:wiring.c      **** // the whole number of milliseconds per timer0 overflow
  33:wiring.c      **** #define MILLIS_INC (MICROSECONDS_PER_TIMER0_OVERFLOW / 1000)
  34:wiring.c      **** 
  35:wiring.c      **** // the fractional number of milliseconds per timer0 overflow. we shift right
  36:wiring.c      **** // by three to fit these numbers into a byte. (for the clock speeds we care
  37:wiring.c      **** // about - 8 and 16 MHz - this doesn't lose precision.)
  38:wiring.c      **** #define FRACT_INC ((MICROSECONDS_PER_TIMER0_OVERFLOW % 1000) >> 3)
  39:wiring.c      **** #define FRACT_MAX (1000 >> 3)
  40:wiring.c      **** 
  41:wiring.c      **** volatile unsigned long timer0_overflow_count = 0;
  42:wiring.c      **** volatile unsigned long timer0_millis = 0;
  43:wiring.c      **** static unsigned char timer0_fract = 0;
ARM GAS  /var/folders/wv/bpgj319905s5rl92drfwf9k40000gn/T//cckIYs0L.s 			page 3


  44:wiring.c      **** 
  45:wiring.c      **** void TIMER0_OVF_vect()
  46:wiring.c      **** {
  72              		.loc 1 46 0
  73              		.cfi_startproc
  74              	.LBB2:
  47:wiring.c      ****   // copy these to local variables so they can be stored in registers
  48:wiring.c      ****   // (volatile variables must be read from memory on every access)
  49:wiring.c      ****   unsigned long m = timer0_millis;
  50:wiring.c      ****   unsigned char f = timer0_fract;
  75              		.loc 1 50 0
  76 0000 0A49     		ldr	r1, .L5	@ tmp140,
  49:wiring.c      ****   unsigned long m = timer0_millis;
  77              		.loc 1 49 0
  78 0002 0B48     		ldr	r0, .L5+4	@ tmp139,
  79              		.loc 1 50 0
  80 0004 0B78     		ldrb	r3, [r1]	@ f, timer0_fract
  49:wiring.c      ****   unsigned long m = timer0_millis;
  81              		.loc 1 49 0
  82 0006 0268     		ldr	r2, [r0]	@ m, timer0_millis
  83              	.LVL0:
  51:wiring.c      **** 
  52:wiring.c      ****   m += MILLIS_INC;
  53:wiring.c      ****   f += FRACT_INC;
  54:wiring.c      ****   if (f >= FRACT_MAX) {
  84              		.loc 1 54 0
  85 0008 7C2B     		cmp	r3, #124	@ f,
  86 000a 01D8     		bhi	.L2	@,
  52:wiring.c      ****   m += MILLIS_INC;
  87              		.loc 1 52 0
  88 000c 0132     		add	r2, r2, #1	@ m,
  89              	.LVL1:
  90 000e 02E0     		b	.L3	@
  91              	.LVL2:
  92              	.L2:
  55:wiring.c      ****     f -= FRACT_MAX;
  93              		.loc 1 55 0
  94 0010 7D3B     		sub	r3, r3, #125	@ tmp141,
  95 0012 DBB2     		uxtb	r3, r3	@ f, tmp141
  96              	.LVL3:
  56:wiring.c      ****     m += 1;
  97              		.loc 1 56 0
  98 0014 0232     		add	r2, r2, #2	@ m,
  99              	.LVL4:
 100              	.L3:
  57:wiring.c      ****   }
  58:wiring.c      **** 
  59:wiring.c      ****   timer0_fract = f;
  60:wiring.c      ****   timer0_millis = m;
 101              		.loc 1 60 0
 102 0016 0260     		str	r2, [r0]	@ m, timer0_millis
  61:wiring.c      ****   timer0_overflow_count++;
 103              		.loc 1 61 0
 104 0018 0648     		ldr	r0, .L5+8	@ tmp145,
  59:wiring.c      ****   timer0_fract = f;
 105              		.loc 1 59 0
 106 001a 0B70     		strb	r3, [r1]	@ f, timer0_fract
ARM GAS  /var/folders/wv/bpgj319905s5rl92drfwf9k40000gn/T//cckIYs0L.s 			page 4


 107              		.loc 1 61 0
 108 001c 0268     		ldr	r2, [r0]	@ timer0_overflow_count.6, timer0_overflow_count
 109              	.LVL5:
  62:wiring.c      **** 
  63:wiring.c      ****   TMR16B0IR     = 1;
 110              		.loc 1 63 0
 111 001e 064B     		ldr	r3, .L5+12	@ tmp147,
 112              	.LVL6:
  61:wiring.c      ****   timer0_overflow_count++;
 113              		.loc 1 61 0
 114 0020 0132     		add	r2, r2, #1	@ timer0_overflow_count.7,
 115              		.loc 1 63 0
 116 0022 0121     		mov	r1, #1	@ tmp148,
  61:wiring.c      ****   timer0_overflow_count++;
 117              		.loc 1 61 0
 118 0024 0260     		str	r2, [r0]	@ timer0_overflow_count.7, timer0_overflow_count
 119              	.LBE2:
  64:wiring.c      **** }
 120              		.loc 1 64 0
 121              		@ sp needed for prologue	@
 122              	.LBB3:
  63:wiring.c      ****   TMR16B0IR     = 1;
 123              		.loc 1 63 0
 124 0026 1960     		str	r1, [r3]	@ tmp148, MEM[(volatile uint32_t *)1073790976B]
 125              	.LBE3:
 126              		.loc 1 64 0
 127 0028 7047     		bx	lr
 128              	.L6:
 129 002a C046     		.align	2
 130              	.L5:
 131 002c 00000000 		.word	.LANCHOR1
 132 0030 00000000 		.word	.LANCHOR0
 133 0034 00000000 		.word	.LANCHOR2
 134 0038 00C00040 		.word	1073790976
 135              		.cfi_endproc
 136              	.LFE0:
 137              		.size	_Z15TIMER0_OVF_vectv, .-_Z15TIMER0_OVF_vectv
 138              		.section	.text._Z6millisv,"ax",%progbits
 139              		.align	1
 140              		.global	_Z6millisv
 141              		.code	16
 142              		.thumb_func
 143              		.type	_Z6millisv, %function
 144              	_Z6millisv:
 145              	.LFB1:
  65:wiring.c      **** 
  66:wiring.c      **** unsigned long millis()
  67:wiring.c      **** {
 146              		.loc 1 67 0
 147              		.cfi_startproc
 148              	.LBB4:
  68:wiring.c      ****   unsigned long m;
  69:wiring.c      **** 
  70:wiring.c      ****   // disable interrupts while we read timer0_millis or we might get an
  71:wiring.c      ****   // inconsistent value (e.g. in the middle of a write to timer0_millis)
  72:wiring.c      ****   noInterrupts();
 149              		.loc 1 72 0
ARM GAS  /var/folders/wv/bpgj319905s5rl92drfwf9k40000gn/T//cckIYs0L.s 			page 5


 150              	@ 72 "wiring.c" 1
 151 0000 72B6     		CPSID i
 152              	@ 0 "" 2
  73:wiring.c      ****   m = timer0_millis;
 153              		.loc 1 73 0
 154              		.code	16
 155 0002 024B     		ldr	r3, .L8	@ tmp136,
 156 0004 1868     		ldr	r0, [r3]	@ m, timer0_millis
 157              	.LVL7:
  74:wiring.c      ****   interrupts();
 158              		.loc 1 74 0
 159              	@ 74 "wiring.c" 1
 160 0006 62B6     		CPSIE i
 161              	@ 0 "" 2
 162              		.code	16
 163              	.LBE4:
  75:wiring.c      **** 
  76:wiring.c      ****   return m;
  77:wiring.c      **** }
 164              		.loc 1 77 0
 165              		@ sp needed for prologue	@
 166 0008 7047     		bx	lr
 167              	.L9:
 168 000a C046     		.align	2
 169              	.L8:
 170 000c 00000000 		.word	.LANCHOR0
 171              		.cfi_endproc
 172              	.LFE1:
 173              		.size	_Z6millisv, .-_Z6millisv
 174              		.section	.text._Z6microsv,"ax",%progbits
 175              		.align	1
 176              		.global	_Z6microsv
 177              		.code	16
 178              		.thumb_func
 179              		.type	_Z6microsv, %function
 180              	_Z6microsv:
 181              	.LFB2:
  78:wiring.c      **** 
  79:wiring.c      **** unsigned long micros() {
 182              		.loc 1 79 0
 183              		.cfi_startproc
 184              	.LBB5:
  80:wiring.c      ****   unsigned long m;
  81:wiring.c      ****   uint16_t t;
  82:wiring.c      **** 
  83:wiring.c      ****   noInterrupts();
 185              		.loc 1 83 0
 186              	@ 83 "wiring.c" 1
 187 0000 72B6     		CPSID i
 188              	@ 0 "" 2
  84:wiring.c      ****   m = timer0_overflow_count;
 189              		.loc 1 84 0
 190              		.code	16
 191 0002 094B     		ldr	r3, .L14	@ tmp146,
  85:wiring.c      ****   t = TMR16B0TC;
 192              		.loc 1 85 0
 193 0004 0948     		ldr	r0, .L14+4	@ tmp147,
ARM GAS  /var/folders/wv/bpgj319905s5rl92drfwf9k40000gn/T//cckIYs0L.s 			page 6


  84:wiring.c      ****   m = timer0_overflow_count;
 194              		.loc 1 84 0
 195 0006 1968     		ldr	r1, [r3]	@ m, timer0_overflow_count
 196              	.LVL8:
 197              		.loc 1 85 0
 198 0008 0268     		ldr	r2, [r0]	@ D.5646, MEM[(volatile uint32_t *)1073790984B]
  86:wiring.c      **** 
  87:wiring.c      ****   // if there is a pending overflow - increment by 1
  88:wiring.c      ****   if (TMR16B0IR & _BV(MR0INT))
 199              		.loc 1 88 0
 200 000a 094B     		ldr	r3, .L14+8	@ tmp148,
  85:wiring.c      ****   t = TMR16B0TC;
 201              		.loc 1 85 0
 202 000c 90B2     		uxth	r0, r2	@ t, D.5646
 203              	.LVL9:
 204              		.loc 1 88 0
 205 000e 1A68     		ldr	r2, [r3]	@ D.5649, MEM[(volatile uint32_t *)1073790976B]
 206              	.LVL10:
  89:wiring.c      ****       m++;
 207              		.loc 1 89 0
 208 0010 0123     		mov	r3, #1	@ tmp150,
 209 0012 1A40     		and	r2, r3	@ tmp158, tmp150
 210 0014 8918     		add	r1, r1, r2	@ m, m, tmp158
 211              	.LVL11:
  90:wiring.c      **** 
  91:wiring.c      ****   interrupts();
 212              		.loc 1 91 0
 213              	@ 91 "wiring.c" 1
 214 0016 62B6     		CPSIE i
 215              	@ 0 "" 2
  92:wiring.c      **** 
  93:wiring.c      ****   return (m*1000) + (0xffff && t);
 216              		.loc 1 93 0
 217              		.code	16
 218 0018 FA22     		mov	r2, #250	@ tmp161,
 219 001a 9300     		lsl	r3, r2, #2	@ tmp153, tmp161,
 220 001c 4B43     		mul	r3, r1	@ tmp152, m
 221 001e 421E     		sub	r2, r0, #1	@ tmp156, t
 222 0020 9041     		sbc	r0, r0, r2	@ tmp155, t, tmp156
 223              	.LVL12:
 224 0022 1818     		add	r0, r3, r0	@ tmp151, tmp152, tmp155
 225              	.LBE5:
  94:wiring.c      **** }
 226              		.loc 1 94 0
 227              		@ sp needed for prologue	@
 228 0024 7047     		bx	lr
 229              	.L15:
 230 0026 C046     		.align	2
 231              	.L14:
 232 0028 00000000 		.word	.LANCHOR2
 233 002c 08C00040 		.word	1073790984
 234 0030 00C00040 		.word	1073790976
 235              		.cfi_endproc
 236              	.LFE2:
 237              		.size	_Z6microsv, .-_Z6microsv
 238              		.section	.text._Z5delaym,"ax",%progbits
 239              		.align	1
ARM GAS  /var/folders/wv/bpgj319905s5rl92drfwf9k40000gn/T//cckIYs0L.s 			page 7


 240              		.global	_Z5delaym
 241              		.code	16
 242              		.thumb_func
 243              		.type	_Z5delaym, %function
 244              	_Z5delaym:
 245              	.LFB3:
  95:wiring.c      **** 
  96:wiring.c      **** void delay(unsigned long ms)
  97:wiring.c      **** {
 246              		.loc 1 97 0
 247              		.cfi_startproc
 248              	.LVL13:
 249 0000 38B5     		push	{r3, r4, r5, lr}	@
 250              	.LCFI0:
 251              		.cfi_def_cfa_offset 16
 252              		.cfi_offset 3, -16
 253              		.cfi_offset 4, -12
 254              		.cfi_offset 5, -8
 255              		.cfi_offset 14, -4
 256              		.loc 1 97 0
 257 0002 041C     		mov	r4, r0	@ ms, ms
 258              	.LBB6:
  98:wiring.c      ****   uint32_t start = micros();
 259              		.loc 1 98 0
 260 0004 FFF7FEFF 		bl	_Z6microsv	@
 261              	.LVL14:
 262 0008 051C     		mov	r5, r0	@ start,
 263              	.LVL15:
 264              	.L22:
  99:wiring.c      **** 
 100:wiring.c      ****   while (ms > 0) {
 265              		.loc 1 100 0 discriminator 1
 266 000a 002C     		cmp	r4, #0	@ ms,
 267 000c 0AD0     		beq	.L23	@,
 268              	.L19:
 101:wiring.c      ****     if ((micros() - start) >= 1000) {
 269              		.loc 1 101 0
 270 000e FFF7FEFF 		bl	_Z6microsv	@
 271              	.LVL16:
 272 0012 054B     		ldr	r3, .L24	@ tmp139,
 273 0014 401B     		sub	r0, r0, r5	@ tmp138, D.5640, start
 274 0016 9842     		cmp	r0, r3	@ tmp138, tmp139
 275 0018 F7D9     		bls	.L22	@,
 102:wiring.c      ****       ms--;
 103:wiring.c      ****       start += 1000;
 276              		.loc 1 103 0
 277 001a FA21     		mov	r1, #250	@,
 278 001c 8A00     		lsl	r2, r1, #2	@,,
 102:wiring.c      ****       ms--;
 279              		.loc 1 102 0
 280 001e 013C     		sub	r4, r4, #1	@ ms,
 281              	.LVL17:
 282              		.loc 1 103 0
 283 0020 AD18     		add	r5, r5, r2	@ start, start,
 284              	.LVL18:
 285 0022 F2E7     		b	.L22	@
 286              	.L23:
ARM GAS  /var/folders/wv/bpgj319905s5rl92drfwf9k40000gn/T//cckIYs0L.s 			page 8


 287              	.LBE6:
 104:wiring.c      ****     }
 105:wiring.c      ****   }
 106:wiring.c      **** }
 288              		.loc 1 106 0
 289              		@ sp needed for prologue	@
 290              	.LVL19:
 291              	.LVL20:
 292 0024 38BD     		pop	{r3, r4, r5, pc}
 293              	.L25:
 294 0026 C046     		.align	2
 295              	.L24:
 296 0028 E7030000 		.word	999
 297              		.cfi_endproc
 298              	.LFE3:
 299              		.size	_Z5delaym, .-_Z5delaym
 300              		.section	.text._Z17delayMicrosecondsj,"ax",%progbits
 301              		.align	1
 302              		.global	_Z17delayMicrosecondsj
 303              		.code	16
 304              		.thumb_func
 305              		.type	_Z17delayMicrosecondsj, %function
 306              	_Z17delayMicrosecondsj:
 307              	.LFB4:
 107:wiring.c      **** 
 108:wiring.c      **** /* Delay for the given number of microseconds.  */
 109:wiring.c      **** void delayMicroseconds(unsigned int us)
 110:wiring.c      **** {
 308              		.loc 1 110 0
 309              		.cfi_startproc
 310              	.LVL21:
 311 0000 10B5     		push	{r4, lr}	@
 312              	.LCFI1:
 313              		.cfi_def_cfa_offset 8
 314              		.cfi_offset 4, -8
 315              		.cfi_offset 14, -4
 316              		.loc 1 110 0
 317 0002 041C     		mov	r4, r0	@ us, us
 318              	.LBB7:
 111:wiring.c      ****   uint32_t start = micros(), end;
 319              		.loc 1 111 0
 320 0004 FFF7FEFF 		bl	_Z6microsv	@
 321              	.LVL22:
 112:wiring.c      **** 
 113:wiring.c      ****   end = start + us;
 322              		.loc 1 113 0
 323 0008 0419     		add	r4, r0, r4	@ end, start, us
 324              	.LVL23:
 325              	.L27:
 114:wiring.c      **** 
 115:wiring.c      ****   while (end>micros())
 326              		.loc 1 115 0 discriminator 1
 327 000a FFF7FEFF 		bl	_Z6microsv	@
 328              	.LVL24:
 329 000e 8442     		cmp	r4, r0	@ end, D.5634
 330 0010 01D9     		bls	.L29	@,
 331              	.L28:
ARM GAS  /var/folders/wv/bpgj319905s5rl92drfwf9k40000gn/T//cckIYs0L.s 			page 9


 116:wiring.c      ****     asm("nop");
 332              		.loc 1 116 0
 333              	@ 116 "wiring.c" 1
 334 0012 C046     		nop
 335              	@ 0 "" 2
 336              		.code	16
 337 0014 F9E7     		b	.L27	@
 338              	.L29:
 339              	.LBE7:
 117:wiring.c      **** }
 340              		.loc 1 117 0
 341              		@ sp needed for prologue	@
 342              	.LVL25:
 343 0016 10BD     		pop	{r4, pc}
 344              		.cfi_endproc
 345              	.LFE4:
 346              		.size	_Z17delayMicrosecondsj, .-_Z17delayMicrosecondsj
 347              		.section	.text._Z4initv,"ax",%progbits
 348              		.align	1
 349              		.global	_Z4initv
 350              		.code	16
 351              		.thumb_func
 352              		.type	_Z4initv, %function
 353              	_Z4initv:
 354              	.LFB5:
 118:wiring.c      **** 
 119:wiring.c      **** 
 120:wiring.c      **** void init()
 121:wiring.c      **** {
 355              		.loc 1 121 0
 356              		.cfi_startproc
 357              	.LBB8:
 122:wiring.c      ****   uint32_t i;
 123:wiring.c      ****   
 124:wiring.c      ****   PDRUNCFG     &= ~(1 << 5);          // Power-up System Osc      
 358              		.loc 1 124 0
 359 0000 214A     		ldr	r2, .L48	@ tmp146,
 360 0002 2021     		mov	r1, #32	@ tmp147,
 361 0004 1368     		ldr	r3, [r2]	@ D.5590, MEM[(volatile uint32_t *)1074037304B]
 125:wiring.c      ****   SYSOSCCTRL    = 0x00000000;
 362              		.loc 1 125 0
 363 0006 0020     		mov	r0, #0	@ tmp150,
 124:wiring.c      ****   PDRUNCFG     &= ~(1 << 5);          // Power-up System Osc      
 364              		.loc 1 124 0
 365 0008 8B43     		bic	r3, r1	@ D.5591, tmp147
 366 000a 1360     		str	r3, [r2]	@ D.5591, MEM[(volatile uint32_t *)1074037304B]
 367              		.loc 1 125 0
 368 000c 1F4B     		ldr	r3, .L48+4	@ tmp149,
 369 000e 111C     		mov	r1, r2	@ tmp193, tmp146
 370 0010 1860     		str	r0, [r3]	@ tmp150, MEM[(volatile uint32_t *)1074036768B]
 371              	.LVL26:
 372 0012 C823     		mov	r3, #200	@ ivtmp.27,
 373              	.LVL27:
 374              	.L31:
 126:wiring.c      ****   for (i = 0; i < 200; i++) asm("nop");
 375              		.loc 1 126 0 discriminator 2
 376              	@ 126 "wiring.c" 1
ARM GAS  /var/folders/wv/bpgj319905s5rl92drfwf9k40000gn/T//cckIYs0L.s 			page 10


 377 0014 C046     		nop
 378              	@ 0 "" 2
 379              		.code	16
 380 0016 013B     		sub	r3, r3, #1	@ ivtmp.27,
 381 0018 002B     		cmp	r3, #0	@ ivtmp.27,
 382 001a FBD1     		bne	.L31	@,
 127:wiring.c      ****   SYSPLLCLKSEL  = 0x00000000;         // Select PLL Input         
 383              		.loc 1 127 0
 384 001c 1C4A     		ldr	r2, .L48+8	@ tmp151,
 128:wiring.c      ****   SYSPLLCLKUEN  = 0x01;               // Update Clock Source      
 385              		.loc 1 128 0
 386 001e 0120     		mov	r0, #1	@ tmp154,
 127:wiring.c      ****   SYSPLLCLKSEL  = 0x00000000;         // Select PLL Input         
 387              		.loc 1 127 0
 388 0020 1360     		str	r3, [r2]	@ ivtmp.27, MEM[(volatile uint32_t *)1074036800B]
 389              		.loc 1 128 0
 390 0022 1C4A     		ldr	r2, .L48+12	@ tmp153,
 391 0024 1060     		str	r0, [r2]	@ tmp154, MEM[(volatile uint32_t *)1074036804B]
 129:wiring.c      ****   SYSPLLCLKUEN  = 0x00;               // Toggle Update Register   
 392              		.loc 1 129 0
 393 0026 1360     		str	r3, [r2]	@ ivtmp.27, MEM[(volatile uint32_t *)1074036804B]
 130:wiring.c      ****   SYSPLLCLKUEN  = 0x01;
 394              		.loc 1 130 0
 395 0028 1060     		str	r0, [r2]	@ tmp154, MEM[(volatile uint32_t *)1074036804B]
 396              	.L32:
 131:wiring.c      ****   while (!(SYSPLLCLKUEN & 0x01));     // Wait Until Updated       
 397              		.loc 1 131 0 discriminator 1
 398 002a 1368     		ldr	r3, [r2]	@ D.5604, MEM[(volatile uint32_t *)1074036804B]
 399 002c D807     		lsl	r0, r3, #31	@, D.5604,
 400 002e FCD5     		bpl	.L32	@,
 132:wiring.c      ****   SYSPLLCTRL    = 0x00000023;
 401              		.loc 1 132 0
 402 0030 1948     		ldr	r0, .L48+16	@ tmp162,
 403 0032 2322     		mov	r2, #35	@ tmp163,
 404 0034 0260     		str	r2, [r0]	@ tmp163, MEM[(volatile uint32_t *)1074036744B]
 133:wiring.c      ****   PDRUNCFG     &= ~(1 << 7);          // Power-up SYSPLL          
 405              		.loc 1 133 0
 406 0036 0B68     		ldr	r3, [r1]	@ D.5607, MEM[(volatile uint32_t *)1074037304B]
 407 0038 8022     		mov	r2, #128	@ tmp165,
 408 003a 9343     		bic	r3, r2	@ D.5608, tmp165
 409 003c 0B60     		str	r3, [r1]	@ D.5608, MEM[(volatile uint32_t *)1074037304B]
 410              	.L33:
 134:wiring.c      ****   while (!(SYSPLLSTAT & 0x01));       // Wait Until PLL Locked    
 411              		.loc 1 134 0 discriminator 1
 412 003e 1749     		ldr	r1, .L48+20	@ tmp167,
 413 0040 0122     		mov	r2, #1	@ tmp169,
 414 0042 0868     		ldr	r0, [r1]	@ D.5614, MEM[(volatile uint32_t *)1074036748B]
 415 0044 1042     		tst	r0, r2	@ D.5614, tmp169
 416 0046 FAD0     		beq	.L33	@,
 135:wiring.c      ****   MAINCLKSEL    = 0x00000003;         // Select PLL Clock Output  
 417              		.loc 1 135 0
 418 0048 154B     		ldr	r3, .L48+24	@ tmp170,
 136:wiring.c      ****   MAINCLKUEN    = 0x01;               // Update MCLK Clock Source 
 419              		.loc 1 136 0
 420 004a 1648     		ldr	r0, .L48+28	@ tmp172,
 135:wiring.c      ****   MAINCLKSEL    = 0x00000003;         // Select PLL Clock Output  
 421              		.loc 1 135 0
ARM GAS  /var/folders/wv/bpgj319905s5rl92drfwf9k40000gn/T//cckIYs0L.s 			page 11


 422 004c 0321     		mov	r1, #3	@ tmp171,
 423 004e 1960     		str	r1, [r3]	@ tmp171, MEM[(volatile uint32_t *)1074036848B]
 137:wiring.c      ****   MAINCLKUEN    = 0x00;               // Toggle Update Register   
 424              		.loc 1 137 0
 425 0050 0021     		mov	r1, #0	@ tmp175,
 136:wiring.c      ****   MAINCLKUEN    = 0x01;               // Update MCLK Clock Source 
 426              		.loc 1 136 0
 427 0052 0260     		str	r2, [r0]	@ tmp169, MEM[(volatile uint32_t *)1074036852B]
 428              		.loc 1 137 0
 429 0054 0160     		str	r1, [r0]	@ tmp175, MEM[(volatile uint32_t *)1074036852B]
 138:wiring.c      ****   MAINCLKUEN    = 0x01;
 430              		.loc 1 138 0
 431 0056 0260     		str	r2, [r0]	@ tmp169, MEM[(volatile uint32_t *)1074036852B]
 432              	.L34:
 139:wiring.c      ****   while (!(MAINCLKUEN & 0x01));       // Wait Until Updated       
 433              		.loc 1 139 0 discriminator 1
 434 0058 0368     		ldr	r3, [r0]	@ D.5622, MEM[(volatile uint32_t *)1074036852B]
 435 005a 0122     		mov	r2, #1	@ tmp180,
 436 005c 1342     		tst	r3, r2	@ D.5622, tmp180
 437 005e FBD0     		beq	.L34	@,
 140:wiring.c      ****   
 141:wiring.c      ****   //  enable clocks on advanced high-performance bus
 142:wiring.c      ****   SYSAHBCLKCTRL = 0x3FFFF;
 438              		.loc 1 142 0
 439 0060 1148     		ldr	r0, .L48+32	@ tmp182,
 440 0062 1249     		ldr	r1, .L48+36	@ tmp181,
 143:wiring.c      **** 
 144:wiring.c      ****   //  configure timers
 145:wiring.c      ****   TMR16B0PR     = 47;
 441              		.loc 1 145 0
 442 0064 124B     		ldr	r3, .L48+40	@ tmp183,
 142:wiring.c      ****   SYSAHBCLKCTRL = 0x3FFFF;
 443              		.loc 1 142 0
 444 0066 0860     		str	r0, [r1]	@ tmp182, MEM[(volatile uint32_t *)1074036864B]
 445              		.loc 1 145 0
 446 0068 2F20     		mov	r0, #47	@ tmp184,
 447 006a 1860     		str	r0, [r3]	@ tmp184, MEM[(volatile uint32_t *)1073790988B]
 146:wiring.c      ****   TMR16B0MCR    = 3;
 448              		.loc 1 146 0
 449 006c 1148     		ldr	r0, .L48+44	@ tmp185,
 450 006e 0321     		mov	r1, #3	@ tmp186,
 451 0070 0160     		str	r1, [r0]	@ tmp186, MEM[(volatile uint32_t *)1073790996B]
 147:wiring.c      ****   TMR16B0MR0    = 1000;
 452              		.loc 1 147 0
 453 0072 FA23     		mov	r3, #250	@ tmp196,
 454 0074 1048     		ldr	r0, .L48+48	@ tmp187,
 455 0076 9900     		lsl	r1, r3, #2	@ tmp188, tmp196,
 148:wiring.c      ****   ISER          = 0x10000;             // Enable timer0 interrupt
 456              		.loc 1 148 0
 457 0078 8023     		mov	r3, #128	@ tmp197,
 147:wiring.c      ****   TMR16B0MR0    = 1000;
 458              		.loc 1 147 0
 459 007a 0160     		str	r1, [r0]	@ tmp188, MEM[(volatile uint32_t *)1073791000B]
 460              		.loc 1 148 0
 461 007c 5902     		lsl	r1, r3, #9	@ tmp190, tmp197,
 462 007e 0F48     		ldr	r0, .L48+52	@ tmp189,
 149:wiring.c      ****   TMR16B0TCR    = 0x1;
ARM GAS  /var/folders/wv/bpgj319905s5rl92drfwf9k40000gn/T//cckIYs0L.s 			page 12


 463              		.loc 1 149 0
 464 0080 0F4B     		ldr	r3, .L48+56	@ tmp191,
 148:wiring.c      ****   ISER          = 0x10000;             // Enable timer0 interrupt
 465              		.loc 1 148 0
 466 0082 0160     		str	r1, [r0]	@ tmp190, MEM[(volatile uint32_t *)3758153984B]
 467              	.LBE8:
 150:wiring.c      **** 
 151:wiring.c      **** }
 468              		.loc 1 151 0
 469              		@ sp needed for prologue	@
 470              	.LBB9:
 149:wiring.c      ****   TMR16B0TCR    = 0x1;
 471              		.loc 1 149 0
 472 0084 1A60     		str	r2, [r3]	@ tmp180, MEM[(volatile uint32_t *)1073790980B]
 473              	.LBE9:
 474              		.loc 1 151 0
 475 0086 7047     		bx	lr
 476              	.L49:
 477              		.align	2
 478              	.L48:
 479 0088 38820440 		.word	1074037304
 480 008c 20800440 		.word	1074036768
 481 0090 40800440 		.word	1074036800
 482 0094 44800440 		.word	1074036804
 483 0098 08800440 		.word	1074036744
 484 009c 0C800440 		.word	1074036748
 485 00a0 70800440 		.word	1074036848
 486 00a4 74800440 		.word	1074036852
 487 00a8 FFFF0300 		.word	262143
 488 00ac 80800440 		.word	1074036864
 489 00b0 0CC00040 		.word	1073790988
 490 00b4 14C00040 		.word	1073790996
 491 00b8 18C00040 		.word	1073791000
 492 00bc 00E100E0 		.word	-536813312
 493 00c0 04C00040 		.word	1073790980
 494              		.cfi_endproc
 495              	.LFE5:
 496              		.size	_Z4initv, .-_Z4initv
 497              		.global	timer0_millis
 498              		.global	timer0_overflow_count
 499              		.section	.bss.timer0_overflow_count,"aw",%nobits
 500              		.align	2
 501              		.set	.LANCHOR2,. + 0
 502              		.type	timer0_overflow_count, %object
 503              		.size	timer0_overflow_count, 4
 504              	timer0_overflow_count:
 505 0000 00000000 		.space	4
 506              		.section	.bss._ZL12timer0_fract,"aw",%nobits
 507              		.set	.LANCHOR1,. + 0
 508              		.type	_ZL12timer0_fract, %object
 509              		.size	_ZL12timer0_fract, 1
 510              	_ZL12timer0_fract:
 511 0000 00       		.space	1
 512              		.section	.bss.timer0_millis,"aw",%nobits
 513              		.align	2
 514              		.set	.LANCHOR0,. + 0
 515              		.type	timer0_millis, %object
ARM GAS  /var/folders/wv/bpgj319905s5rl92drfwf9k40000gn/T//cckIYs0L.s 			page 13


 516              		.size	timer0_millis, 4
 517              	timer0_millis:
 518 0000 00000000 		.space	4
 519              		.text
 520              	.Letext0:
 521              		.file 2 "/Users/stevenparker/toolchains/gcc-arm-none-eabi-4_7-2013q2/bin/../lib/gcc/arm-none-eabi/